(dp0
S'f0'
p1
(dp2
S'rname'
p3
S'"f0"'
p4
sS'sortable'
p5
I2
sS'raw_rname'
p6
g1
sS'notnull'
p7
I00
sS'length'
p8
I512
sS'sql'
p9
S'CHAR(1)'
p10
sS'unique'
p11
I00
sS'type'
p12
S'boolean'
p13
ssS'f1'
p14
(dp15
g3
S'"f1"'
p16
sg5
I3
sg6
g14
sg7
I00
sg8
I512
sg9
S'CHAR(1)'
p17
sg11
I00
sg12
g13
ssS'f2'
p18
(dp19
g3
S'"f2"'
p20
sg5
I4
sg6
g18
sg7
I00
sg8
I512
sg9
S'CHAR(1)'
p21
sg11
I00
sg12
g13
ssS'f3'
p22
(dp23
g3
S'"f3"'
p24
sg5
I5
sg6
g22
sg7
I00
sg8
I512
sg9
S'CHAR(1)'
p25
sg11
I00
sg12
g13
ssS'f4'
p26
(dp27
g3
S'"f4"'
p28
sg5
I6
sg6
g26
sg7
I00
sg8
I512
sg9
S'CHAR(512)'
p29
sg11
I00
sg12
S'string'
p30
ssS'f5'
p31
(dp32
g3
S'"f5"'
p33
sg5
I7
sg6
g31
sg7
I00
sg8
I512
sg9
S'CHAR(512)'
p34
sg11
I00
sg12
g30
ssS'f6'
p35
(dp36
g3
S'"f6"'
p37
sg5
I8
sg6
g35
sg7
I00
sg8
I512
sg9
S'CHAR(512)'
p38
sg11
I00
sg12
g30
ssS'f7'
p39
(dp40
g3
S'"f7"'
p41
sg5
I9
sg6
g39
sg7
I00
sg8
I512
sg9
S'CHAR(512)'
p42
sg11
I00
sg12
g30
ssS'f8'
p43
(dp44
g3
S'"f8"'
p45
sg5
I10
sg6
g43
sg7
I00
sg8
I512
sg9
S'CHAR(1)'
p46
sg11
I00
sg12
g13
ssS'f9'
p47
(dp48
g3
S'"f9"'
p49
sg5
I11
sg6
g47
sg7
I00
sg8
I512
sg9
S'CHAR(1)'
p50
sg11
I00
sg12
g13
ssS'id'
p51
(dp52
g3
S'"id"'
p53
sg5
I1
sg6
g51
sg7
I00
sg8
I512
sg9
S'INTEGER PRIMARY KEY AUTOINCREMENT'
p54
sg11
I00
sg12
g51
ssS'f20'
p55
(dp56
g3
S'"f20"'
p57
sg5
I22
sg6
g55
sg7
I00
sg8
I512
sg9
S'CHAR(1)'
p58
sg11
I00
sg12
g13
ssS'f18'
p59
(dp60
g3
S'"f18"'
p61
sg5
I20
sg6
g59
sg7
I00
sg8
I512
sg9
S'CHAR(1)'
p62
sg11
I00
sg12
g13
ssS'f19'
p63
(dp64
g3
S'"f19"'
p65
sg5
I21
sg6
g63
sg7
I00
sg8
I512
sg9
S'CHAR(1)'
p66
sg11
I00
sg12
g13
ssS'f12'
p67
(dp68
g3
S'"f12"'
p69
sg5
I14
sg6
g67
sg7
I00
sg8
I512
sg9
S'CHAR(1)'
p70
sg11
I00
sg12
g13
ssS'f13'
p71
(dp72
g3
S'"f13"'
p73
sg5
I15
sg6
g71
sg7
I00
sg8
I512
sg9
S'CHAR(1)'
p74
sg11
I00
sg12
g13
ssS'f10'
p75
(dp76
g3
S'"f10"'
p77
sg5
I12
sg6
g75
sg7
I00
sg8
I512
sg9
S'CHAR(1)'
p78
sg11
I00
sg12
g13
ssS'f11'
p79
(dp80
g3
S'"f11"'
p81
sg5
I13
sg6
g79
sg7
I00
sg8
I512
sg9
S'CHAR(1)'
p82
sg11
I00
sg12
g13
ssS'f16'
p83
(dp84
g3
S'"f16"'
p85
sg5
I18
sg6
g83
sg7
I00
sg8
I512
sg9
S'CHAR(1)'
p86
sg11
I00
sg12
g13
ssS'f17'
p87
(dp88
g3
S'"f17"'
p89
sg5
I19
sg6
g87
sg7
I00
sg8
I512
sg9
S'CHAR(1)'
p90
sg11
I00
sg12
g13
ssS'f14'
p91
(dp92
g3
S'"f14"'
p93
sg5
I16
sg6
g91
sg7
I00
sg8
I512
sg9
S'CHAR(1)'
p94
sg11
I00
sg12
g13
ssS'f15'
p95
(dp96
g3
S'"f15"'
p97
sg5
I17
sg6
g95
sg7
I00
sg8
I512
sg9
S'CHAR(1)'
p98
sg11
I00
sg12
g13
ss.