(dp0
S'f0'
p1
(dp2
S'rname'
p3
S'"f0"'
p4
sS'sortable'
p5
I2
sS'raw_rname'
p6
g1
sS'notnull'
p7
I00
sS'length'
p8
I512
sS'sql'
p9
S'CHAR(512)'
p10
sS'unique'
p11
I00
sS'type'
p12
S'string'
p13
ssS'f1'
p14
(dp15
g3
S'"f1"'
p16
sg5
I3
sg6
g14
sg7
I00
sg8
I512
sg9
S'CHAR(512)'
p17
sg11
I00
sg12
g13
ssS'f2'
p18
(dp19
g3
S'"f2"'
p20
sg5
I4
sg6
g18
sg7
I00
sg8
I512
sg9
S'CHAR(512)'
p21
sg11
I00
sg12
g13
ssS'f3'
p22
(dp23
g3
S'"f3"'
p24
sg5
I5
sg6
g22
sg7
I00
sg8
I512
sg9
S'CHAR(512)'
p25
sg11
I00
sg12
g13
ssS'f4'
p26
(dp27
g3
S'"f4"'
p28
sg5
I6
sg6
g26
sg7
I00
sg8
I512
sg9
S'CHAR(512)'
p29
sg11
I00
sg12
g13
ssS'f5'
p30
(dp31
g3
S'"f5"'
p32
sg5
I7
sg6
g30
sg7
I00
sg8
I512
sg9
S'CHAR(512)'
p33
sg11
I00
sg12
g13
ssS'f6'
p34
(dp35
g3
S'"f6"'
p36
sg5
I8
sg6
g34
sg7
I00
sg8
I512
sg9
S'CHAR(512)'
p37
sg11
I00
sg12
g13
ssS'f7'
p38
(dp39
g3
S'"f7"'
p40
sg5
I9
sg6
g38
sg7
I00
sg8
I512
sg9
S'CHAR(512)'
p41
sg11
I00
sg12
g13
ssS'f8'
p42
(dp43
g3
S'"f8"'
p44
sg5
I10
sg6
g42
sg7
I00
sg8
I512
sg9
S'CHAR(1)'
p45
sg11
I00
sg12
S'boolean'
p46
ssS'f9'
p47
(dp48
g3
S'"f9"'
p49
sg5
I11
sg6
g47
sg7
I00
sg8
I512
sg9
S'CHAR(512)'
p50
sg11
I00
sg12
g13
ssS'id'
p51
(dp52
g3
S'"id"'
p53
sg5
I1
sg6
g51
sg7
I00
sg8
I512
sg9
S'INTEGER PRIMARY KEY AUTOINCREMENT'
p54
sg11
I00
sg12
g51
ssS'f41'
p55
(dp56
g3
S'"f41"'
p57
sg5
I43
sg6
g55
sg7
I00
sg8
I512
sg9
S'CHAR(512)'
p58
sg11
I00
sg12
g13
ssS'f40'
p59
(dp60
g3
S'"f40"'
p61
sg5
I42
sg6
g59
sg7
I00
sg8
I512
sg9
S'CHAR(512)'
p62
sg11
I00
sg12
g13
ssS'f43'
p63
(dp64
g3
S'"f43"'
p65
sg5
I45
sg6
g63
sg7
I00
sg8
I512
sg9
S'CHAR(512)'
p66
sg11
I00
sg12
g13
ssS'f42'
p67
(dp68
g3
S'"f42"'
p69
sg5
I44
sg6
g67
sg7
I00
sg8
I512
sg9
S'CHAR(512)'
p70
sg11
I00
sg12
g13
ssS'f45'
p71
(dp72
g3
S'"f45"'
p73
sg5
I47
sg6
g71
sg7
I00
sg8
I512
sg9
S'CHAR(512)'
p74
sg11
I00
sg12
g13
ssS'f44'
p75
(dp76
g3
S'"f44"'
p77
sg5
I46
sg6
g75
sg7
I00
sg8
I512
sg9
S'CHAR(512)'
p78
sg11
I00
sg12
g13
ssS'f47'
p79
(dp80
g3
S'"f47"'
p81
sg5
I49
sg6
g79
sg7
I00
sg8
I512
sg9
S'CHAR(512)'
p82
sg11
I00
sg12
g13
ssS'f46'
p83
(dp84
g3
S'"f46"'
p85
sg5
I48
sg6
g83
sg7
I00
sg8
I512
sg9
S'CHAR(512)'
p86
sg11
I00
sg12
g13
ssS'f49'
p87
(dp88
g3
S'"f49"'
p89
sg5
I51
sg6
g87
sg7
I00
sg8
I512
sg9
S'CHAR(512)'
p90
sg11
I00
sg12
g13
ssS'f48'
p91
(dp92
g3
S'"f48"'
p93
sg5
I50
sg6
g91
sg7
I00
sg8
I512
sg9
S'CHAR(512)'
p94
sg11
I00
sg12
g13
ssS'f32'
p95
(dp96
g3
S'"f32"'
p97
sg5
I34
sg6
g95
sg7
I00
sg8
I512
sg9
S'CHAR(512)'
p98
sg11
I00
sg12
g13
ssS'f23'
p99
(dp100
g3
S'"f23"'
p101
sg5
I25
sg6
g99
sg7
I00
sg8
I512
sg9
S'CHAR(1)'
p102
sg11
I00
sg12
g46
ssS'f22'
p103
(dp104
g3
S'"f22"'
p105
sg5
I24
sg6
g103
sg7
I00
sg8
I512
sg9
S'CHAR(1)'
p106
sg11
I00
sg12
g46
ssS'f21'
p107
(dp108
g3
S'"f21"'
p109
sg5
I23
sg6
g107
sg7
I00
sg8
I512
sg9
S'CHAR(512)'
p110
sg11
I00
sg12
g13
ssS'f20'
p111
(dp112
g3
S'"f20"'
p113
sg5
I22
sg6
g111
sg7
I00
sg8
I512
sg9
S'CHAR(512)'
p114
sg11
I00
sg12
g13
ssS'f27'
p115
(dp116
g3
S'"f27"'
p117
sg5
I29
sg6
g115
sg7
I00
sg8
I512
sg9
S'CHAR(512)'
p118
sg11
I00
sg12
g13
ssS'f26'
p119
(dp120
g3
S'"f26"'
p121
sg5
I28
sg6
g119
sg7
I00
sg8
I512
sg9
S'CHAR(512)'
p122
sg11
I00
sg12
g13
ssS'f25'
p123
(dp124
g3
S'"f25"'
p125
sg5
I27
sg6
g123
sg7
I00
sg8
I512
sg9
S'CHAR(512)'
p126
sg11
I00
sg12
g13
ssS'f24'
p127
(dp128
g3
S'"f24"'
p129
sg5
I26
sg6
g127
sg7
I00
sg8
I512
sg9
S'CHAR(1)'
p130
sg11
I00
sg12
g46
ssS'f29'
p131
(dp132
g3
S'"f29"'
p133
sg5
I31
sg6
g131
sg7
I00
sg8
I512
sg9
S'CHAR(512)'
p134
sg11
I00
sg12
g13
ssS'f28'
p135
(dp136
g3
S'"f28"'
p137
sg5
I30
sg6
g135
sg7
I00
sg8
I512
sg9
S'CHAR(512)'
p138
sg11
I00
sg12
g13
ssS'f33'
p139
(dp140
g3
S'"f33"'
p141
sg5
I35
sg6
g139
sg7
I00
sg8
I512
sg9
S'CHAR(512)'
p142
sg11
I00
sg12
g13
ssS'f38'
p143
(dp144
g3
S'"f38"'
p145
sg5
I40
sg6
g143
sg7
I00
sg8
I512
sg9
S'CHAR(512)'
p146
sg11
I00
sg12
g13
ssS'f39'
p147
(dp148
g3
S'"f39"'
p149
sg5
I41
sg6
g147
sg7
I00
sg8
I512
sg9
S'CHAR(512)'
p150
sg11
I00
sg12
g13
ssS'f56'
p151
(dp152
g3
S'"f56"'
p153
sg5
I58
sg6
g151
sg7
I00
sg8
I512
sg9
S'CHAR(512)'
p154
sg11
I00
sg12
g13
ssS'f57'
p155
(dp156
g3
S'"f57"'
p157
sg5
I59
sg6
g155
sg7
I00
sg8
I512
sg9
S'CHAR(512)'
p158
sg11
I00
sg12
g13
ssS'f54'
p159
(dp160
g3
S'"f54"'
p161
sg5
I56
sg6
g159
sg7
I00
sg8
I512
sg9
S'CHAR(512)'
p162
sg11
I00
sg12
g13
ssS'f55'
p163
(dp164
g3
S'"f55"'
p165
sg5
I57
sg6
g163
sg7
I00
sg8
I512
sg9
S'CHAR(512)'
p166
sg11
I00
sg12
g13
ssS'f52'
p167
(dp168
g3
S'"f52"'
p169
sg5
I54
sg6
g167
sg7
I00
sg8
I512
sg9
S'CHAR(512)'
p170
sg11
I00
sg12
g13
ssS'f53'
p171
(dp172
g3
S'"f53"'
p173
sg5
I55
sg6
g171
sg7
I00
sg8
I512
sg9
S'CHAR(512)'
p174
sg11
I00
sg12
g13
ssS'f50'
p175
(dp176
g3
S'"f50"'
p177
sg5
I52
sg6
g175
sg7
I00
sg8
I512
sg9
S'CHAR(512)'
p178
sg11
I00
sg12
g13
ssS'f51'
p179
(dp180
g3
S'"f51"'
p181
sg5
I53
sg6
g179
sg7
I00
sg8
I512
sg9
S'CHAR(512)'
p182
sg11
I00
sg12
g13
ssS'f58'
p183
(dp184
g3
S'"f58"'
p185
sg5
I60
sg6
g183
sg7
I00
sg8
I512
sg9
S'CHAR(512)'
p186
sg11
I00
sg12
g13
ssS'f59'
p187
(dp188
g3
S'"f59"'
p189
sg5
I61
sg6
g187
sg7
I00
sg8
I512
sg9
S'CHAR(512)'
p190
sg11
I00
sg12
g13
ssS'f30'
p191
(dp192
g3
S'"f30"'
p193
sg5
I32
sg6
g191
sg7
I00
sg8
I512
sg9
S'CHAR(512)'
p194
sg11
I00
sg12
g13
ssS'f31'
p195
(dp196
g3
S'"f31"'
p197
sg5
I33
sg6
g195
sg7
I00
sg8
I512
sg9
S'CHAR(512)'
p198
sg11
I00
sg12
g13
ssS'f18'
p199
(dp200
g3
S'"f18"'
p201
sg5
I20
sg6
g199
sg7
I00
sg8
I512
sg9
S'CHAR(512)'
p202
sg11
I00
sg12
g13
ssS'f19'
p203
(dp204
g3
S'"f19"'
p205
sg5
I21
sg6
g203
sg7
I00
sg8
I512
sg9
S'CHAR(512)'
p206
sg11
I00
sg12
g13
ssS'f34'
p207
(dp208
g3
S'"f34"'
p209
sg5
I36
sg6
g207
sg7
I00
sg8
I512
sg9
S'CHAR(512)'
p210
sg11
I00
sg12
g13
ssS'f35'
p211
(dp212
g3
S'"f35"'
p213
sg5
I37
sg6
g211
sg7
I00
sg8
I512
sg9
S'CHAR(512)'
p214
sg11
I00
sg12
g13
ssS'f36'
p215
(dp216
g3
S'"f36"'
p217
sg5
I38
sg6
g215
sg7
I00
sg8
I512
sg9
S'CHAR(512)'
p218
sg11
I00
sg12
g13
ssS'f37'
p219
(dp220
g3
S'"f37"'
p221
sg5
I39
sg6
g219
sg7
I00
sg8
I512
sg9
S'CHAR(1)'
p222
sg11
I00
sg12
g46
ssS'f12'
p223
(dp224
g3
S'"f12"'
p225
sg5
I14
sg6
g223
sg7
I00
sg8
I512
sg9
S'CHAR(1)'
p226
sg11
I00
sg12
g46
ssS'f13'
p227
(dp228
g3
S'"f13"'
p229
sg5
I15
sg6
g227
sg7
I00
sg8
I512
sg9
S'CHAR(1)'
p230
sg11
I00
sg12
g46
ssS'f10'
p231
(dp232
g3
S'"f10"'
p233
sg5
I12
sg6
g231
sg7
I00
sg8
I512
sg9
S'CHAR(512)'
p234
sg11
I00
sg12
g13
ssS'f11'
p235
(dp236
g3
S'"f11"'
p237
sg5
I13
sg6
g235
sg7
I00
sg8
I512
sg9
S'CHAR(1)'
p238
sg11
I00
sg12
g46
ssS'f16'
p239
(dp240
g3
S'"f16"'
p241
sg5
I18
sg6
g239
sg7
I00
sg8
I512
sg9
S'CHAR(1)'
p242
sg11
I00
sg12
g46
ssS'f17'
p243
(dp244
g3
S'"f17"'
p245
sg5
I19
sg6
g243
sg7
I00
sg8
I512
sg9
S'CHAR(1)'
p246
sg11
I00
sg12
g46
ssS'f14'
p247
(dp248
g3
S'"f14"'
p249
sg5
I16
sg6
g247
sg7
I00
sg8
I512
sg9
S'CHAR(1)'
p250
sg11
I00
sg12
g46
ssS'f15'
p251
(dp252
g3
S'"f15"'
p253
sg5
I17
sg6
g251
sg7
I00
sg8
I512
sg9
S'CHAR(1)'
p254
sg11
I00
sg12
g46
ss.