(dp1
S'output'
p2
S"<type 'exceptions.AttributeError'> 'DAL' object has no attribute 'indextable0'"
p3
sS'layer'
p4
S'/home/w2p/web2py/applications/ji105/views/default/index.html'
p5
sS'code'
p6
S'response.write(\'<!doctype html>\\n<html class="no-js" lang="">\\n\\n<head>\\n    <meta charset="utf-8">\\n    <meta http-equiv="x-ua-compatible" content="ie=edge">\\n    <title>facew2p</title>\\n    <meta name="description" content="">\\n    <meta name="viewport" content="width=device-width, initial-scale=1">\\n    <!-- favicon\\n\\t\\t============================================ -->\\n    <link rel="shortcut icon" type="image/x-icon" href="\', escape=False)\nresponse.write(URL(\'static\',\'template/img/favicon.ico\'))\nresponse.write(\'">\\n    <!-- Google Fonts\\n\\t\\t============================================ -->\\n    <link href="https://fonts.googleapis.com/css?family=Robot,900" rel="stylesheet">\\n    <!-- Bootstrap CSS\\n\\t\\t============================================ -->\\n    <link rel="stylesheet" href="\', escape=False)\nresponse.write(URL(\'static\',\'template/css/bootstrap.min.css\'))\nresponse.write(\'">\\n    <!-- Bootstrap CSS\\n\\t\\t============================================ -->\\n    <link rel="stylesheet" href="\', escape=False)\nresponse.write(URL(\'static\',\'template/css/font-awesome.min.css\'))\nresponse.write(\'">\\n    <!-- owl.carousel CSS\\n\\t\\t============================================ -->\\n    <link rel="stylesheet" href="\', escape=False)\nresponse.write(URL(\'static\',\'template/css/owl.carousel.css\'))\nresponse.write(\'">\\n    <link rel="stylesheet" href="\', escape=False)\nresponse.write(URL(\'static\',\'template/css/owl.theme.css\'))\nresponse.write(\'">\\n    <link rel="stylesheet" href="\', escape=False)\nresponse.write(URL(\'static\',\'template/css/owl.transitions.css\'))\nresponse.write(\'">\\n    <!-- meanmenu CSS\\n\\t\\t============================================ -->\\n    <link rel="stylesheet" href="\', escape=False)\nresponse.write(URL(\'static\',\'template/css/meanmenu/meanmenu.min.css\'))\nresponse.write(\'">\\n    <!-- animate CSS\\n\\t\\t============================================ -->\\n    <link rel="stylesheet" href="\', escape=False)\nresponse.write(URL(\'static\',\'template/css/animate.css\'))\nresponse.write(\'">\\n    <!-- normalize CSS\\n\\t\\t============================================ -->\\n    <link rel="stylesheet" href="\', escape=False)\nresponse.write(URL(\'static\',\'template/css/normalize.css\'))\nresponse.write(\'">\\n    <!-- mCustomScrollbar CSS\\n\\t\\t============================================ -->\\n    <link rel="stylesheet" href="\', escape=False)\nresponse.write(URL(\'static\',\'template/css/scrollbar/jquery.mCustomScrollbar.min.css\'))\nresponse.write(\'">\\n    <!-- jvectormap CSS\\n\\t\\t============================================ -->\\n    <link rel="stylesheet" href="\', escape=False)\nresponse.write(URL(\'static\',\'template/css/jvectormap/jquery-jvectormap-2.0.3.css\'))\nresponse.write(\'">\\n    <!-- notika icon CSS\\n\\t\\t============================================ -->\\n    <link rel="stylesheet" href="\', escape=False)\nresponse.write(URL(\'static\',\'template/css/notika-custom-icon.css\'))\nresponse.write(\'">\\n    <!-- wave CSS\\n\\t\\t============================================ -->\\n    <link rel="stylesheet" href="\', escape=False)\nresponse.write(URL(\'static\',\'template/css/wave/waves.min.css\'))\nresponse.write(\'">\\n    <!-- main CSS\\n\\t\\t============================================ -->\\n    <link rel="stylesheet" href="\', escape=False)\nresponse.write(URL(\'static\',\'template/css/main.css\'))\nresponse.write(\'">\\n    <!-- style CSS\\n\\t\\t============================================ -->\\n    <link rel="stylesheet" href="\', escape=False)\nresponse.write(URL(\'static\',\'template/style.css\'))\nresponse.write(\'">\\n    <!-- responsive CSS\\n\\t\\t============================================ -->\\n    <link rel="stylesheet" href="\', escape=False)\nresponse.write(URL(\'static\',\'template/css/responsive.css\'))\nresponse.write(\'">\\n    <!-- modernizr JS\\n\\t\\t============================================ -->\\n    <script src="\', escape=False)\nresponse.write(URL(\'static\',\'template/js/vendor/modernizr-2.8.3.min.js\'))\nresponse.write(\'"></script>\\n\\n\\n   <meta charset=\\\'utf-8\\\'>\\n   <link  rel="icon" type="image/x-icon" href="\', escape=False)\nresponse.write(URL(\'static\',\'images/favicon.ico\'))\nresponse.write(\'"  >\\n</head>\\n\\n<body>\\n    <!--[if lt IE 8]>\\n            <p class="browserupgrade">You are using an <strong>\', escape=False)\nresponse.write(DICT["sp10073"])\nresponse.write(\'</strong> browser. Please <a href="https://browsehappy.com/">\', escape=False)\nresponse.write(DICT["aa10075"])\nresponse.write(\'</a>\', escape=False)\nresponse.write(DICT["pc10074"])\nresponse.write(\'</p>\\n        <![endif]-->\\n    <!-- Start Header Top Area -->\\n    <div class="header-top-area">\\n        <div class="container">\\n            <div class="row">\\n                <div class="col-lg-4 col-md-4 col-sm-12 col-xs-12">\\n                    <div class="logo-area">\\n                        <a href="#"><img src="\', escape=False)\nresponse.write(URL(\'static\',\'template/img/logo/logo.png\'))\nresponse.write(\'" alt="" /></a>\\n                    </div>\\n                </div>\\n                <div class="col-lg-8 col-md-8 col-sm-12 col-xs-12">\\n                    <div class="header-top-menu">\\n                        <ul class="nav navbar-nav notika-top-nav">\\n                            <li class="nav-item dropdown">\\n                                <a href="#" data-toggle="dropdown" role="button" aria-expanded="false" class="nav-link dropdown-toggle"><span><i class="notika-icon notika-search"></i></span></a>\\n                                <div role="menu" class="dropdown-menu search-dd animated flipInX">\\n                                    <div class="search-input">\\n                                        <i class="notika-icon notika-left-arrow"></i>\\n                                        <input type="text" />\\n                                    </div>\\n                                </div>\\n                            </li>\\n                            <li class="nav-item dropdown">\\n                                <a href="#" data-toggle="dropdown" role="button" aria-expanded="false" class="nav-link dropdown-toggle"><span><i class="notika-icon notika-mail"></i></span></a>\\n                                <div role="menu" class="dropdown-menu message-dd animated zoomIn">\\n                                    <div class="hd-mg-tt">\\n                                        <h2>\', escape=False)\nresponse.write(DICT["hh10077"])\nresponse.write(\'</h2>\\n                                    </div>\\n                                    <div class="hd-message-info">\\n                                        <a href="#">\\n                                            <div class="hd-message-sn">\\n                                                <div class="hd-message-img">\\n                                                    <img src="\', escape=False)\nresponse.write(URL(\'static\',\'template/img/post/1.jpg\'))\nresponse.write(\'" alt="" />\\n                                                </div>\\n                                                <div class="hd-mg-ctn">\\n                                                    <h3>\', escape=False)\nresponse.write(DICT["hh10079"])\nresponse.write(\'</h3>\\n                                                    <p>\', escape=False)\nresponse.write(DICT["pa10080"])\nresponse.write(\'</p>\\n                                                </div>\\n                                            </div>\\n                                        </a>\\n                                        <a href="#">\\n                                            <div class="hd-message-sn">\\n                                                <div class="hd-message-img">\\n                                                    <img src="\', escape=False)\nresponse.write(URL(\'static\',\'template/img/post/2.jpg\'))\nresponse.write(\'" alt="" />\\n                                                </div>\\n                                                <div class="hd-mg-ctn">\\n                                                    <h3>\', escape=False)\nresponse.write(DICT["hh10082"])\nresponse.write(\'</h3>\\n                                                    <p>\', escape=False)\nresponse.write(DICT["pa10083"])\nresponse.write(\'</p>\\n                                                </div>\\n                                            </div>\\n                                        </a>\\n                                        <a href="#">\\n                                            <div class="hd-message-sn">\\n                                                <div class="hd-message-img">\\n                                                    <img src="\', escape=False)\nresponse.write(URL(\'static\',\'template/img/post/4.jpg\'))\nresponse.write(\'" alt="" />\\n                                                </div>\\n                                                <div class="hd-mg-ctn">\\n                                                    <h3>\', escape=False)\nresponse.write(DICT["hh10085"])\nresponse.write(\'</h3>\\n                                                    <p>\', escape=False)\nresponse.write(DICT["pa10086"])\nresponse.write(\'</p>\\n                                                </div>\\n                                            </div>\\n                                        </a>\\n                                        <a href="#">\\n                                            <div class="hd-message-sn">\\n                                                <div class="hd-message-img">\\n                                                    <img src="\', escape=False)\nresponse.write(URL(\'static\',\'template/img/post/1.jpg\'))\nresponse.write(\'" alt="" />\\n                                                </div>\\n                                                <div class="hd-mg-ctn">\\n                                                    <h3>\', escape=False)\nresponse.write(DICT["hh10088"])\nresponse.write(\'</h3>\\n                                                    <p>\', escape=False)\nresponse.write(DICT["pa10089"])\nresponse.write(\'</p>\\n                                                </div>\\n                                            </div>\\n                                        </a>\\n                                        <a href="#">\\n                                            <div class="hd-message-sn">\\n                                                <div class="hd-message-img">\\n                                                    <img src="\', escape=False)\nresponse.write(URL(\'static\',\'template/img/post/2.jpg\'))\nresponse.write(\'" alt="" />\\n                                                </div>\\n                                                <div class="hd-mg-ctn">\\n                                                    <h3>\', escape=False)\nresponse.write(DICT["hh10091"])\nresponse.write(\'</h3>\\n                                                    <p>\', escape=False)\nresponse.write(DICT["pa10092"])\nresponse.write(\'</p>\\n                                                </div>\\n                                            </div>\\n                                        </a>\\n                                    </div>\\n                                    <div class="hd-mg-va">\\n                                        <a href="#">\', escape=False)\nresponse.write(DICT["aa10093"])\nresponse.write(\'</a>\\n                                    </div>\\n                                </div>\\n                            </li>\\n                            <li class="nav-item nc-al"><a href="#" data-toggle="dropdown" role="button" aria-expanded="false" class="nav-link dropdown-toggle"><span><i class="notika-icon notika-alarm"></i></span><div class="spinner4 spinner-4"></div><div class="ntd-ctn"><span>\', escape=False)\nresponse.write(DICT["sp10094"])\nresponse.write(\'</span></div></a>\\n                                <div role="menu" class="dropdown-menu message-dd notification-dd animated zoomIn">\\n                                    <div class="hd-mg-tt">\\n                                        <h2>\', escape=False)\nresponse.write(DICT["hh10095"])\nresponse.write(\'</h2>\\n                                    </div>\\n                                    <div class="hd-message-info">\\n                                        <a href="#">\\n                                            <div class="hd-message-sn">\\n                                                <div class="hd-message-img">\\n                                                    <img src="\', escape=False)\nresponse.write(URL(\'static\',\'template/img/post/1.jpg\'))\nresponse.write(\'" alt="" />\\n                                                </div>\\n                                                <div class="hd-mg-ctn">\\n                                                    <h3>\', escape=False)\nresponse.write(DICT["hh10097"])\nresponse.write(\'</h3>\\n                                                    <p>\', escape=False)\nresponse.write(DICT["pa10098"])\nresponse.write(\'</p>\\n                                                </div>\\n                                            </div>\\n                                        </a>\\n                                        <a href="#">\\n                                            <div class="hd-message-sn">\\n                                                <div class="hd-message-img">\\n                                                    <img src="\', escape=False)\nresponse.write(URL(\'static\',\'template/img/post/2.jpg\'))\nresponse.write(\'" alt="" />\\n                                                </div>\\n                                                <div class="hd-mg-ctn">\\n                                                    <h3>\', escape=False)\nresponse.write(DICT["hh10100"])\nresponse.write(\'</h3>\\n                                                    <p>\', escape=False)\nresponse.write(DICT["pa10101"])\nresponse.write(\'</p>\\n                                                </div>\\n                                            </div>\\n                                        </a>\\n                                        <a href="#">\\n                                            <div class="hd-message-sn">\\n                                                <div class="hd-message-img">\\n                                                    <img src="\', escape=False)\nresponse.write(URL(\'static\',\'template/img/post/4.jpg\'))\nresponse.write(\'" alt="" />\\n                                                </div>\\n                                                <div class="hd-mg-ctn">\\n                                                    <h3>\', escape=False)\nresponse.write(DICT["hh10103"])\nresponse.write(\'</h3>\\n                                                    <p>\', escape=False)\nresponse.write(DICT["pa10104"])\nresponse.write(\'</p>\\n                                                </div>\\n                                            </div>\\n                                        </a>\\n                                        <a href="#">\\n                                            <div class="hd-message-sn">\\n                                                <div class="hd-message-img">\\n                                                    <img src="\', escape=False)\nresponse.write(URL(\'static\',\'template/img/post/1.jpg\'))\nresponse.write(\'" alt="" />\\n                                                </div>\\n                                                <div class="hd-mg-ctn">\\n                                                    <h3>\', escape=False)\nresponse.write(DICT["hh10106"])\nresponse.write(\'</h3>\\n                                                    <p>\', escape=False)\nresponse.write(DICT["pa10107"])\nresponse.write(\'</p>\\n                                                </div>\\n                                            </div>\\n                                        </a>\\n                                        <a href="#">\\n                                            <div class="hd-message-sn">\\n                                                <div class="hd-message-img">\\n                                                    <img src="\', escape=False)\nresponse.write(URL(\'static\',\'template/img/post/2.jpg\'))\nresponse.write(\'" alt="" />\\n                                                </div>\\n                                                <div class="hd-mg-ctn">\\n                                                    <h3>\', escape=False)\nresponse.write(DICT["hh10109"])\nresponse.write(\'</h3>\\n                                                    <p>\', escape=False)\nresponse.write(DICT["pa10110"])\nresponse.write(\'</p>\\n                                                </div>\\n                                            </div>\\n                                        </a>\\n                                    </div>\\n                                    <div class="hd-mg-va">\\n                                        <a href="#">\', escape=False)\nresponse.write(DICT["aa10111"])\nresponse.write(\'</a>\\n                                    </div>\\n                                </div>\\n                            </li>\\n                            <li class="nav-item"><a href="#" data-toggle="dropdown" role="button" aria-expanded="false" class="nav-link dropdown-toggle"><span><i class="notika-icon notika-menus"></i></span><div class="spinner4 spinner-4"></div><div class="ntd-ctn"><span>\', escape=False)\nresponse.write(DICT["sp10112"])\nresponse.write(\'</span></div></a>\\n                                <div role="menu" class="dropdown-menu message-dd task-dd animated zoomIn">\\n                                    <div class="hd-mg-tt">\\n                                        <h2>\', escape=False)\nresponse.write(DICT["hh10113"])\nresponse.write(\'</h2>\\n                                    </div>\\n                                    <div class="hd-message-info hd-task-info">\\n                                        <div class="skill">\\n                                            <div class="progress">\\n                                                <div class="lead-content">\\n                                                    <p>\', escape=False)\nresponse.write(DICT["pa10114"])\nresponse.write(\'</p>\\n                                                </div>\\n                                                <div class="progress-bar wow fadeInLeft" data-progress="95%" style="width: 95%;" data-wow-duration="1.5s" data-wow-delay="1.2s"> <span>\', escape=False)\nresponse.write(DICT["sp10115"])\nresponse.write(\'</span>\\n                                                </div>\\n                                            </div>\\n                                            <div class="progress">\\n                                                <div class="lead-content">\\n                                                    <p>\', escape=False)\nresponse.write(DICT["pa10116"])\nresponse.write(\'</p>\\n                                                </div>\\n                                                <div class="progress-bar wow fadeInLeft" data-progress="85%" style="width: 85%;" data-wow-duration="1.5s" data-wow-delay="1.2s"><span>\', escape=False)\nresponse.write(DICT["sp10117"])\nresponse.write(\'</span> </div>\\n                                            </div>\\n                                            <div class="progress">\\n                                                <div class="lead-content">\\n                                                    <p>\', escape=False)\nresponse.write(DICT["pa10118"])\nresponse.write(\'</p>\\n                                                </div>\\n                                                <div class="progress-bar wow fadeInLeft" data-progress="75%" style="width: 75%;" data-wow-duration="1.5s" data-wow-delay="1.2s"><span>\', escape=False)\nresponse.write(DICT["sp10119"])\nresponse.write(\'</span> </div>\\n                                            </div>\\n                                            <div class="progress">\\n                                                <div class="lead-content">\\n                                                    <p>\', escape=False)\nresponse.write(DICT["pa10120"])\nresponse.write(\'</p>\\n                                                </div>\\n                                                <div class="progress-bar wow fadeInLeft" data-progress="93%" style="width: 65%;" data-wow-duration="1.5s" data-wow-delay="1.2s"><span>\', escape=False)\nresponse.write(DICT["sp10121"])\nresponse.write(\'</span> </div>\\n                                            </div>\\n                                            <div class="progress progress-bt">\\n                                                <div class="lead-content">\\n                                                    <p>\', escape=False)\nresponse.write(DICT["pa10122"])\nresponse.write(\'</p>\\n                                                </div>\\n                                                <div class="progress-bar wow fadeInLeft" data-progress="55%" style="width: 55%;" data-wow-duration="1.5s" data-wow-delay="1.2s"><span>\', escape=False)\nresponse.write(DICT["sp10123"])\nresponse.write(\'</span> </div>\\n                                            </div>\\n                                        </div>\\n                                    </div>\\n                                    <div class="hd-mg-va">\\n                                        <a href="#">\', escape=False)\nresponse.write(DICT["aa10124"])\nresponse.write(\'</a>\\n                                    </div>\\n                                </div>\\n                            </li>\\n                            <li class="nav-item"><a href="#" data-toggle="dropdown" role="button" aria-expanded="false" class="nav-link dropdown-toggle"><span><i class="notika-icon notika-chat"></i></span></a>\\n                                <div role="menu" class="dropdown-menu message-dd chat-dd animated zoomIn">\\n                                    <div class="hd-mg-tt">\\n                                        <h2>\', escape=False)\nresponse.write(DICT["hh10125"])\nresponse.write(\'</h2>\\n                                    </div>\\n                                    <div class="search-people">\\n                                        <i class="notika-icon notika-left-arrow"></i>\\n                                        <input type="text" placeholder="\', escape=False)\nresponse.write(DICT["pb10126"])\nresponse.write(\'" />\\n                                    </div>\\n                                    <div class="hd-message-info">\\n                                        <a href="#">\\n                                            <div class="hd-message-sn">\\n                                                <div class="hd-message-img chat-img">\\n                                                    <img src="\', escape=False)\nresponse.write(URL(\'static\',\'template/img/post/1.jpg\'))\nresponse.write(\'" alt="" />\\n                                                    <div class="chat-avaible"><i class="notika-icon notika-dot"></i></div>\\n                                                </div>\\n                                                <div class="hd-mg-ctn">\\n                                                    <h3>\', escape=False)\nresponse.write(DICT["hh10128"])\nresponse.write(\'</h3>\\n                                                    <p>\', escape=False)\nresponse.write(DICT["pa10129"])\nresponse.write(\'</p>\\n                                                </div>\\n                                            </div>\\n                                        </a>\\n                                        <a href="#">\\n                                            <div class="hd-message-sn">\\n                                                <div class="hd-message-img chat-img">\\n                                                    <img src="\', escape=False)\nresponse.write(URL(\'static\',\'template/img/post/2.jpg\'))\nresponse.write(\'" alt="" />\\n                                                </div>\\n                                                <div class="hd-mg-ctn">\\n                                                    <h3>\', escape=False)\nresponse.write(DICT["hh10131"])\nresponse.write(\'</h3>\\n                                                    <p>\', escape=False)\nresponse.write(DICT["pa10132"])\nresponse.write(\'</p>\\n                                                </div>\\n                                            </div>\\n                                        </a>\\n                                        <a href="#">\\n                                            <div class="hd-message-sn">\\n                                                <div class="hd-message-img chat-img">\\n                                                    <img src="\', escape=False)\nresponse.write(URL(\'static\',\'template/img/post/4.jpg\'))\nresponse.write(\'" alt="" />\\n                                                </div>\\n                                                <div class="hd-mg-ctn">\\n                                                    <h3>\', escape=False)\nresponse.write(DICT["hh10134"])\nresponse.write(\'</h3>\\n                                                    <p>\', escape=False)\nresponse.write(DICT["pa10135"])\nresponse.write(\'</p>\\n                                                </div>\\n                                            </div>\\n                                        </a>\\n                                        <a href="#">\\n                                            <div class="hd-message-sn">\\n                                                <div class="hd-message-img chat-img">\\n                                                    <img src="\', escape=False)\nresponse.write(URL(\'static\',\'template/img/post/1.jpg\'))\nresponse.write(\'" alt="" />\\n                                                    <div class="chat-avaible"><i class="notika-icon notika-dot"></i></div>\\n                                                </div>\\n                                                <div class="hd-mg-ctn">\\n                                                    <h3>\', escape=False)\nresponse.write(DICT["hh10137"])\nresponse.write(\'</h3>\\n                                                    <p>\', escape=False)\nresponse.write(DICT["pa10138"])\nresponse.write(\'</p>\\n                                                </div>\\n                                            </div>\\n                                        </a>\\n                                        <a href="#">\\n                                            <div class="hd-message-sn">\\n                                                <div class="hd-message-img chat-img">\\n                                                    <img src="\', escape=False)\nresponse.write(URL(\'static\',\'template/img/post/2.jpg\'))\nresponse.write(\'" alt="" />\\n                                                    <div class="chat-avaible"><i class="notika-icon notika-dot"></i></div>\\n                                                </div>\\n                                                <div class="hd-mg-ctn">\\n                                                    <h3>\', escape=False)\nresponse.write(DICT["hh10140"])\nresponse.write(\'</h3>\\n                                                    <p>\', escape=False)\nresponse.write(DICT["pa10141"])\nresponse.write(\'</p>\\n                                                </div>\\n                                            </div>\\n                                        </a>\\n                                    </div>\\n                                    <div class="hd-mg-va">\\n                                        <a href="#">\', escape=False)\nresponse.write(DICT["aa10142"])\nresponse.write(\'</a>\\n                                    </div>\\n                                </div>\\n                            </li>\\n                        </ul>\\n                    </div>\\n                </div>\\n            </div>\\n        </div>\\n    </div>\\n    <!-- End Header Top Area -->\\n    <!-- Mobile Menu start -->\\n    <div class="mobile-menu-area">\\n        <div class="container">\\n            <div class="row">\\n                <div class="col-lg-12 col-md-12 col-sm-12 col-xs-12">\\n                    <div class="mobile-menu">\\n                        <nav id="dropdown">\\n                            <ul class="mobile-menu-nav">\\n                                <li><a data-toggle="collapse" data-target="#Charts" href="#">\', escape=False)\nresponse.write(DICT["aa10143"])\nresponse.write(\'</a>\\n                                    <ul class="collapse dropdown-header-top">\\n                                        <li><a href="\', escape=False)\nresponse.write(URL(c=\'default\',f=\'index\'))\nresponse.write(\'">\', escape=False)\nresponse.write(DICT["aa10145"])\nresponse.write(\'</a></li>\\n                                        <li><a href="\', escape=False)\nresponse.write(URL(c=\'default\',f=\'index_2\'))\nresponse.write(\'">\', escape=False)\nresponse.write(DICT["aa10147"])\nresponse.write(\'</a></li>\\n                                        <li><a href="\', escape=False)\nresponse.write(URL(c=\'default\',f=\'index_3\'))\nresponse.write(\'">\', escape=False)\nresponse.write(DICT["aa10149"])\nresponse.write(\'</a></li>\\n                                        <li><a href="\', escape=False)\nresponse.write(URL(c=\'default\',f=\'index_4\'))\nresponse.write(\'">\', escape=False)\nresponse.write(DICT["aa10151"])\nresponse.write(\'</a></li>\\n                                        <li><a href="\', escape=False)\nresponse.write(URL(c=\'default\',f=\'analytics\'))\nresponse.write(\'">\', escape=False)\nresponse.write(DICT["aa10153"])\nresponse.write(\'</a></li>\\n                                        <li><a href="\', escape=False)\nresponse.write(URL(c=\'default\',f=\'widgets\'))\nresponse.write(\'">\', escape=False)\nresponse.write(DICT["aa10155"])\nresponse.write(\'</a></li>\\n                                    </ul>\\n                                </li>\\n                                <li><a data-toggle="collapse" data-target="#demoevent" href="#">\', escape=False)\nresponse.write(DICT["aa10156"])\nresponse.write(\'</a>\\n                                    <ul id="demoevent" class="collapse dropdown-header-top">\\n                                        <li><a href="\', escape=False)\nresponse.write(URL(c=\'default\',f=\'inbox\'))\nresponse.write(\'">\', escape=False)\nresponse.write(DICT["aa10158"])\nresponse.write(\'</a></li>\\n                                        <li><a href="\', escape=False)\nresponse.write(URL(c=\'default\',f=\'view_email\'))\nresponse.write(\'">\', escape=False)\nresponse.write(DICT["aa10160"])\nresponse.write(\'</a></li>\\n                                        <li><a href="\', escape=False)\nresponse.write(URL(c=\'default\',f=\'compose_email\'))\nresponse.write(\'">\', escape=False)\nresponse.write(DICT["aa10162"])\nresponse.write(\'</a></li>\\n                                    </ul>\\n                                </li>\\n                                <li><a data-toggle="collapse" data-target="#democrou" href="#">\', escape=False)\nresponse.write(DICT["aa10163"])\nresponse.write(\'</a>\\n                                    <ul id="democrou" class="collapse dropdown-header-top">\\n                                        <li><a href="\', escape=False)\nresponse.write(URL(c=\'default\',f=\'animations\'))\nresponse.write(\'">\', escape=False)\nresponse.write(DICT["aa10165"])\nresponse.write(\'</a></li>\\n                                        <li><a href="\', escape=False)\nresponse.write(URL(c=\'default\',f=\'google_map\'))\nresponse.write(\'">\', escape=False)\nresponse.write(DICT["aa10167"])\nresponse.write(\'</a></li>\\n                                        <li><a href="\', escape=False)\nresponse.write(URL(c=\'default\',f=\'data_map\'))\nresponse.write(\'">\', escape=False)\nresponse.write(DICT["aa10169"])\nresponse.write(\'</a></li>\\n                                        <li><a href="\', escape=False)\nresponse.write(URL(c=\'default\',f=\'code_editor\'))\nresponse.write(\'">\', escape=False)\nresponse.write(DICT["aa10171"])\nresponse.write(\'</a></li>\\n                                        <li><a href="\', escape=False)\nresponse.write(URL(c=\'default\',f=\'image_cropper\'))\nresponse.write(\'">\', escape=False)\nresponse.write(DICT["aa10173"])\nresponse.write(\'</a></li>\\n                                        <li><a href="\', escape=False)\nresponse.write(URL(c=\'default\',f=\'wizard\'))\nresponse.write(\'">\', escape=False)\nresponse.write(DICT["aa10175"])\nresponse.write(\'</a></li>\\n                                    </ul>\\n                                </li>\\n                                <li><a data-toggle="collapse" data-target="#demolibra" href="#">\', escape=False)\nresponse.write(DICT["aa10176"])\nresponse.write(\'</a>\\n                                    <ul id="demolibra" class="collapse dropdown-header-top">\\n                                        <li><a href="\', escape=False)\nresponse.write(URL(c=\'default\',f=\'flot_charts\'))\nresponse.write(\'">\', escape=False)\nresponse.write(DICT["aa10178"])\nresponse.write(\'</a></li>\\n                                        <li><a href="\', escape=False)\nresponse.write(URL(c=\'default\',f=\'bar_charts\'))\nresponse.write(\'">\', escape=False)\nresponse.write(DICT["aa10180"])\nresponse.write(\'</a></li>\\n                                        <li><a href="\', escape=False)\nresponse.write(URL(c=\'default\',f=\'line_charts\'))\nresponse.write(\'">\', escape=False)\nresponse.write(DICT["aa10182"])\nresponse.write(\'</a></li>\\n                                        <li><a href="\', escape=False)\nresponse.write(URL(c=\'default\',f=\'area_charts\'))\nresponse.write(\'">\', escape=False)\nresponse.write(DICT["aa10184"])\nresponse.write(\'</a></li>\\n                                    </ul>\\n                                </li>\\n                                <li><a data-toggle="collapse" data-target="#demodepart" href="#">\', escape=False)\nresponse.write(DICT["aa10185"])\nresponse.write(\'</a>\\n                                    <ul id="demodepart" class="collapse dropdown-header-top">\\n                                        <li><a href="\', escape=False)\nresponse.write(URL(c=\'default\',f=\'normal_table\'))\nresponse.write(\'">\', escape=False)\nresponse.write(DICT["aa10187"])\nresponse.write(\'</a></li>\\n                                        <li><a href="\', escape=False)\nresponse.write(URL(c=\'default\',f=\'data_table\'))\nresponse.write(\'">\', escape=False)\nresponse.write(DICT["aa10189"])\nresponse.write(\'</a></li>\\n                                    </ul>\\n                                </li>\\n                                <li><a data-toggle="collapse" data-target="#demo" href="#">\', escape=False)\nresponse.write(DICT["aa10190"])\nresponse.write(\'</a>\\n                                    <ul id="demo" class="collapse dropdown-header-top">\\n                                        <li><a href="\', escape=False)\nresponse.write(URL(c=\'default\',f=\'form_elements\'))\nresponse.write(\'">\', escape=False)\nresponse.write(DICT["aa10192"])\nresponse.write(\'</a></li>\\n                                        <li><a href="\', escape=False)\nresponse.write(URL(c=\'default\',f=\'form_components\'))\nresponse.write(\'">\', escape=False)\nresponse.write(DICT["aa10194"])\nresponse.write(\'</a></li>\\n                                        <li><a href="\', escape=False)\nresponse.write(URL(c=\'default\',f=\'form_examples\'))\nresponse.write(\'">\', escape=False)\nresponse.write(DICT["aa10196"])\nresponse.write(\'</a></li>\\n                                    </ul>\\n                                </li>\\n                                <li><a data-toggle="collapse" data-target="#Miscellaneousmob" href="#">\', escape=False)\nresponse.write(DICT["aa10197"])\nresponse.write(\'</a>\\n                                    <ul id="Miscellaneousmob" class="collapse dropdown-header-top">\\n                                        <li><a href="\', escape=False)\nresponse.write(URL(c=\'default\',f=\'notification\'))\nresponse.write(\'">\', escape=False)\nresponse.write(DICT["aa10199"])\nresponse.write(\'</a>\\n                                        </li>\\n                                        <li><a href="\', escape=False)\nresponse.write(URL(c=\'default\',f=\'alert\'))\nresponse.write(\'">\', escape=False)\nresponse.write(DICT["aa10201"])\nresponse.write(\'</a>\\n                                        </li>\\n                                        <li><a href="\', escape=False)\nresponse.write(URL(c=\'default\',f=\'modals\'))\nresponse.write(\'">\', escape=False)\nresponse.write(DICT["aa10203"])\nresponse.write(\'</a>\\n                                        </li>\\n                                        <li><a href="\', escape=False)\nresponse.write(URL(c=\'default\',f=\'buttons\'))\nresponse.write(\'">\', escape=False)\nresponse.write(DICT["aa10205"])\nresponse.write(\'</a>\\n                                        </li>\\n                                        <li><a href="\', escape=False)\nresponse.write(URL(c=\'default\',f=\'tabs\'))\nresponse.write(\'">\', escape=False)\nresponse.write(DICT["aa10207"])\nresponse.write(\'</a>\\n                                        </li>\\n                                        <li><a href="\', escape=False)\nresponse.write(URL(c=\'default\',f=\'accordion\'))\nresponse.write(\'">\', escape=False)\nresponse.write(DICT["aa10209"])\nresponse.write(\'</a>\\n                                        </li>\\n                                        <li><a href="\', escape=False)\nresponse.write(URL(c=\'default\',f=\'dialog\'))\nresponse.write(\'">\', escape=False)\nresponse.write(DICT["aa10211"])\nresponse.write(\'</a>\\n                                        </li>\\n                                        <li><a href="\', escape=False)\nresponse.write(URL(c=\'default\',f=\'popovers\'))\nresponse.write(\'">\', escape=False)\nresponse.write(DICT["aa10213"])\nresponse.write(\'</a>\\n                                        </li>\\n                                        <li><a href="\', escape=False)\nresponse.write(URL(c=\'default\',f=\'tooltips\'))\nresponse.write(\'">\', escape=False)\nresponse.write(DICT["aa10215"])\nresponse.write(\'</a>\\n                                        </li>\\n                                        <li><a href="\', escape=False)\nresponse.write(URL(c=\'default\',f=\'dropdown\'))\nresponse.write(\'">\', escape=False)\nresponse.write(DICT["aa10217"])\nresponse.write(\'</a>\\n                                        </li>\\n                                    </ul>\\n                                </li>\\n                                <li><a data-toggle="collapse" data-target="#Pagemob" href="#">\', escape=False)\nresponse.write(DICT["aa10218"])\nresponse.write(\'</a>\\n                                    <ul id="Pagemob" class="collapse dropdown-header-top">\\n                                        <li><a href="\', escape=False)\nresponse.write(URL(c=\'default\',f=\'contact\'))\nresponse.write(\'">\', escape=False)\nresponse.write(DICT["aa10220"])\nresponse.write(\'</a>\\n                                        </li>\\n                                        <li><a href="\', escape=False)\nresponse.write(URL(c=\'default\',f=\'invoice\'))\nresponse.write(\'">\', escape=False)\nresponse.write(DICT["aa10222"])\nresponse.write(\'</a>\\n                                        </li>\\n                                        <li><a href="\', escape=False)\nresponse.write(URL(c=\'default\',f=\'typography\'))\nresponse.write(\'">\', escape=False)\nresponse.write(DICT["aa10224"])\nresponse.write(\'</a>\\n                                        </li>\\n                                        <li><a href="\', escape=False)\nresponse.write(URL(c=\'default\',f=\'color\'))\nresponse.write(\'">\', escape=False)\nresponse.write(DICT["aa10226"])\nresponse.write(\'</a>\\n                                        </li>\\n                                        <li><a href="\', escape=False)\nresponse.write(URL(c=\'default\',f=\'login_register\'))\nresponse.write(\'">\', escape=False)\nresponse.write(DICT["aa10228"])\nresponse.write(\'</a>\\n                                        </li>\\n                                        <li><a href="\', escape=False)\nresponse.write(URL(c=\'default\',f=\'X404\'))\nresponse.write(\'">\', escape=False)\nresponse.write(DICT["aa10230"])\nresponse.write(\'</a>\\n                                        </li>\\n                                    </ul>\\n                                </li>\\n                            </ul>\\n                        </nav>\\n                    </div>\\n                </div>\\n            </div>\\n        </div>\\n    </div>\\n    <!-- Mobile Menu end -->\\n    <!-- Main Menu area start-->\\n    <div class="main-menu-area mg-tb-40">\\n        <div class="container">\\n            <div class="row">\\n                <div class="col-lg-12 col-md-12 col-sm-12 col-xs-12">\\n                    <ul class="nav nav-tabs notika-menu-wrap menu-it-icon-pro">\\n                        <li class="active"><a data-toggle="tab" href="#Home"><i class="notika-icon notika-house"></i> Home</a>\\n                        </li>\\n                        <li><a data-toggle="tab" href="#mailbox"><i class="notika-icon notika-mail"></i> Email</a>\\n                        </li>\\n                        <li><a data-toggle="tab" href="#Interface"><i class="notika-icon notika-edit"></i> Interface</a>\\n                        </li>\\n                        <li><a data-toggle="tab" href="#Charts"><i class="notika-icon notika-bar-chart"></i> Charts</a>\\n                        </li>\\n                        <li><a data-toggle="tab" href="#Tables"><i class="notika-icon notika-windows"></i> Tables</a>\\n                        </li>\\n                        <li><a data-toggle="tab" href="#Forms"><i class="notika-icon notika-form"></i> Forms</a>\\n                        </li>\\n                        <li><a data-toggle="tab" href="#Appviews"><i class="notika-icon notika-app"></i> App views</a>\\n                        </li>\\n                        <li><a data-toggle="tab" href="#Page"><i class="notika-icon notika-support"></i> Pages</a>\\n                        </li>\\n                    </ul>\\n                    <div class="tab-content custom-menu-content">\\n                        <div id="Home" class="tab-pane in active notika-tab-menu-bg animated flipInX">\\n                            <ul class="notika-main-menu-dropdown">\\n                                <li><a href="\', escape=False)\nresponse.write(URL(c=\'default\',f=\'index\'))\nresponse.write(\'">\', escape=False)\nresponse.write(DICT["aa10232"])\nresponse.write(\'</a>\\n                                </li>\\n                                <li><a href="\', escape=False)\nresponse.write(URL(c=\'default\',f=\'index_2\'))\nresponse.write(\'">\', escape=False)\nresponse.write(DICT["aa10234"])\nresponse.write(\'</a>\\n                                </li>\\n                                <li><a href="\', escape=False)\nresponse.write(URL(c=\'default\',f=\'index_3\'))\nresponse.write(\'">\', escape=False)\nresponse.write(DICT["aa10236"])\nresponse.write(\'</a>\\n                                </li>\\n                                <li><a href="\', escape=False)\nresponse.write(URL(c=\'default\',f=\'index_4\'))\nresponse.write(\'">\', escape=False)\nresponse.write(DICT["aa10238"])\nresponse.write(\'</a>\\n                                </li>\\n                                <li><a href="\', escape=False)\nresponse.write(URL(c=\'default\',f=\'analytics\'))\nresponse.write(\'">\', escape=False)\nresponse.write(DICT["aa10240"])\nresponse.write(\'</a>\\n                                </li>\\n                                <li><a href="\', escape=False)\nresponse.write(URL(c=\'default\',f=\'widgets\'))\nresponse.write(\'">\', escape=False)\nresponse.write(DICT["aa10242"])\nresponse.write(\'</a>\\n                                </li>\\n                            </ul>\\n                        </div>\\n                        <div id="mailbox" class="tab-pane notika-tab-menu-bg animated flipInX">\\n                            <ul class="notika-main-menu-dropdown">\\n                                <li><a href="\', escape=False)\nresponse.write(URL(c=\'default\',f=\'inbox\'))\nresponse.write(\'">\', escape=False)\nresponse.write(DICT["aa10244"])\nresponse.write(\'</a>\\n                                </li>\\n                                <li><a href="\', escape=False)\nresponse.write(URL(c=\'default\',f=\'view_email\'))\nresponse.write(\'">\', escape=False)\nresponse.write(DICT["aa10246"])\nresponse.write(\'</a>\\n                                </li>\\n                                <li><a href="\', escape=False)\nresponse.write(URL(c=\'default\',f=\'compose_email\'))\nresponse.write(\'">\', escape=False)\nresponse.write(DICT["aa10248"])\nresponse.write(\'</a>\\n                                </li>\\n                            </ul>\\n                        </div>\\n                        <div id="Interface" class="tab-pane notika-tab-menu-bg animated flipInX">\\n                            <ul class="notika-main-menu-dropdown">\\n                                <li><a href="\', escape=False)\nresponse.write(URL(c=\'default\',f=\'animations\'))\nresponse.write(\'">\', escape=False)\nresponse.write(DICT["aa10250"])\nresponse.write(\'</a>\\n                                </li>\\n                                <li><a href="\', escape=False)\nresponse.write(URL(c=\'default\',f=\'google_map\'))\nresponse.write(\'">\', escape=False)\nresponse.write(DICT["aa10252"])\nresponse.write(\'</a>\\n                                </li>\\n                                <li><a href="\', escape=False)\nresponse.write(URL(c=\'default\',f=\'data_map\'))\nresponse.write(\'">\', escape=False)\nresponse.write(DICT["aa10254"])\nresponse.write(\'</a>\\n                                </li>\\n                                <li><a href="\', escape=False)\nresponse.write(URL(c=\'default\',f=\'code_editor\'))\nresponse.write(\'">\', escape=False)\nresponse.write(DICT["aa10256"])\nresponse.write(\'</a>\\n                                </li>\\n                                <li><a href="\', escape=False)\nresponse.write(URL(c=\'default\',f=\'image_cropper\'))\nresponse.write(\'">\', escape=False)\nresponse.write(DICT["aa10258"])\nresponse.write(\'</a>\\n                                </li>\\n                                <li><a href="\', escape=False)\nresponse.write(URL(c=\'default\',f=\'wizard\'))\nresponse.write(\'">\', escape=False)\nresponse.write(DICT["aa10260"])\nresponse.write(\'</a>\\n                                </li>\\n                            </ul>\\n                        </div>\\n                        <div id="Charts" class="tab-pane notika-tab-menu-bg animated flipInX">\\n                            <ul class="notika-main-menu-dropdown">\\n                                <li><a href="\', escape=False)\nresponse.write(URL(c=\'default\',f=\'flot_charts\'))\nresponse.write(\'">\', escape=False)\nresponse.write(DICT["aa10262"])\nresponse.write(\'</a>\\n                                </li>\\n                                <li><a href="\', escape=False)\nresponse.write(URL(c=\'default\',f=\'bar_charts\'))\nresponse.write(\'">\', escape=False)\nresponse.write(DICT["aa10264"])\nresponse.write(\'</a>\\n                                </li>\\n                                <li><a href="\', escape=False)\nresponse.write(URL(c=\'default\',f=\'line_charts\'))\nresponse.write(\'">\', escape=False)\nresponse.write(DICT["aa10266"])\nresponse.write(\'</a>\\n                                </li>\\n                                <li><a href="\', escape=False)\nresponse.write(URL(c=\'default\',f=\'area_charts\'))\nresponse.write(\'">\', escape=False)\nresponse.write(DICT["aa10268"])\nresponse.write(\'</a>\\n                                </li>\\n                            </ul>\\n                        </div>\\n                        <div id="Tables" class="tab-pane notika-tab-menu-bg animated flipInX">\\n                            <ul class="notika-main-menu-dropdown">\\n                                <li><a href="\', escape=False)\nresponse.write(URL(c=\'default\',f=\'normal_table\'))\nresponse.write(\'">\', escape=False)\nresponse.write(DICT["aa10270"])\nresponse.write(\'</a>\\n                                </li>\\n                                <li><a href="\', escape=False)\nresponse.write(URL(c=\'default\',f=\'data_table\'))\nresponse.write(\'">\', escape=False)\nresponse.write(DICT["aa10272"])\nresponse.write(\'</a>\\n                                </li>\\n                            </ul>\\n                        </div>\\n                        <div id="Forms" class="tab-pane notika-tab-menu-bg animated flipInX">\\n                            <ul class="notika-main-menu-dropdown">\\n                                <li><a href="\', escape=False)\nresponse.write(URL(c=\'default\',f=\'form_elements\'))\nresponse.write(\'">\', escape=False)\nresponse.write(DICT["aa10274"])\nresponse.write(\'</a>\\n                                </li>\\n                                <li><a href="\', escape=False)\nresponse.write(URL(c=\'default\',f=\'form_components\'))\nresponse.write(\'">\', escape=False)\nresponse.write(DICT["aa10276"])\nresponse.write(\'</a>\\n                                </li>\\n                                <li><a href="\', escape=False)\nresponse.write(URL(c=\'default\',f=\'form_examples\'))\nresponse.write(\'">\', escape=False)\nresponse.write(DICT["aa10278"])\nresponse.write(\'</a>\\n                                </li>\\n                            </ul>\\n                        </div>\\n                        <div id="Appviews" class="tab-pane notika-tab-menu-bg animated flipInX">\\n                            <ul class="notika-main-menu-dropdown">\\n                                <li><a href="\', escape=False)\nresponse.write(URL(c=\'default\',f=\'notification\'))\nresponse.write(\'">\', escape=False)\nresponse.write(DICT["aa10280"])\nresponse.write(\'</a>\\n                                </li>\\n                                <li><a href="\', escape=False)\nresponse.write(URL(c=\'default\',f=\'alert\'))\nresponse.write(\'">\', escape=False)\nresponse.write(DICT["aa10282"])\nresponse.write(\'</a>\\n                                </li>\\n                                <li><a href="\', escape=False)\nresponse.write(URL(c=\'default\',f=\'modals\'))\nresponse.write(\'">\', escape=False)\nresponse.write(DICT["aa10284"])\nresponse.write(\'</a>\\n                                </li>\\n                                <li><a href="\', escape=False)\nresponse.write(URL(c=\'default\',f=\'buttons\'))\nresponse.write(\'">\', escape=False)\nresponse.write(DICT["aa10286"])\nresponse.write(\'</a>\\n                                </li>\\n                                <li><a href="\', escape=False)\nresponse.write(URL(c=\'default\',f=\'tabs\'))\nresponse.write(\'">\', escape=False)\nresponse.write(DICT["aa10288"])\nresponse.write(\'</a>\\n                                </li>\\n                                <li><a href="\', escape=False)\nresponse.write(URL(c=\'default\',f=\'accordion\'))\nresponse.write(\'">\', escape=False)\nresponse.write(DICT["aa10290"])\nresponse.write(\'</a>\\n                                </li>\\n                                <li><a href="\', escape=False)\nresponse.write(URL(c=\'default\',f=\'dialog\'))\nresponse.write(\'">\', escape=False)\nresponse.write(DICT["aa10292"])\nresponse.write(\'</a>\\n                                </li>\\n                                <li><a href="\', escape=False)\nresponse.write(URL(c=\'default\',f=\'popovers\'))\nresponse.write(\'">\', escape=False)\nresponse.write(DICT["aa10294"])\nresponse.write(\'</a>\\n                                </li>\\n                                <li><a href="\', escape=False)\nresponse.write(URL(c=\'default\',f=\'tooltips\'))\nresponse.write(\'">\', escape=False)\nresponse.write(DICT["aa10296"])\nresponse.write(\'</a>\\n                                </li>\\n                                <li><a href="\', escape=False)\nresponse.write(URL(c=\'default\',f=\'dropdown\'))\nresponse.write(\'">\', escape=False)\nresponse.write(DICT["aa10298"])\nresponse.write(\'</a>\\n                                </li>\\n                            </ul>\\n                        </div>\\n                        <div id="Page" class="tab-pane notika-tab-menu-bg animated flipInX">\\n                            <ul class="notika-main-menu-dropdown">\\n                                <li><a href="\', escape=False)\nresponse.write(URL(c=\'default\',f=\'contact\'))\nresponse.write(\'">\', escape=False)\nresponse.write(DICT["aa10300"])\nresponse.write(\'</a>\\n                                </li>\\n                                <li><a href="\', escape=False)\nresponse.write(URL(c=\'default\',f=\'invoice\'))\nresponse.write(\'">\', escape=False)\nresponse.write(DICT["aa10302"])\nresponse.write(\'</a>\\n                                </li>\\n                                <li><a href="\', escape=False)\nresponse.write(URL(c=\'default\',f=\'typography\'))\nresponse.write(\'">\', escape=False)\nresponse.write(DICT["aa10304"])\nresponse.write(\'</a>\\n                                </li>\\n                                <li><a href="\', escape=False)\nresponse.write(URL(c=\'default\',f=\'color\'))\nresponse.write(\'">\', escape=False)\nresponse.write(DICT["aa10306"])\nresponse.write(\'</a>\\n                                </li>\\n                                <li><a href="\', escape=False)\nresponse.write(URL(c=\'default\',f=\'login_register\'))\nresponse.write(\'">\', escape=False)\nresponse.write(DICT["aa10308"])\nresponse.write(\'</a>\\n                                </li>\\n                                <li><a href="\', escape=False)\nresponse.write(URL(c=\'default\',f=\'X404\'))\nresponse.write(\'">\', escape=False)\nresponse.write(DICT["aa10310"])\nresponse.write(\'</a>\\n                                </li>\\n                            </ul>\\n                        </div>\\n                    </div>\\n                </div>\\n            </div>\\n        </div>\\n    </div>\\n    <!-- Main Menu area End-->\\n    <!-- Start Status area -->\\n    <div class="notika-status-area">\\n        <div class="container">\\n            <div class="row">\\n                <div class="col-lg-3 col-md-6 col-sm-6 col-xs-12">\\n                    <div class="wb-traffic-inner notika-shadow sm-res-mg-t-30 tb-res-mg-t-30">\\n                        <div class="website-traffic-ctn">\\n                            <h2><span class="counter">50,000</span></h2>\\n                            <p>Total Website Traffics</p>\\n                        </div>\\n                        <div class="sparkline-bar-stats1">9,4,8,6,5,6,4,8,3,5,9,5</div>\\n                    </div>\\n                </div>\\n                <div class="col-lg-3 col-md-6 col-sm-6 col-xs-12">\\n                    <div class="wb-traffic-inner notika-shadow sm-res-mg-t-30 tb-res-mg-t-30">\\n                        <div class="website-traffic-ctn">\\n                            <h2><span class="counter">90,000</span>k</h2>\\n                            <p>\', escape=False)\nresponse.write(DICT["pa10311"])\nresponse.write(\'</p>\\n                        </div>\\n                        <div class="sparkline-bar-stats2">1,4,8,3,5,6,4,8,3,3,9,5</div>\\n                    </div>\\n                </div>\\n                <div class="col-lg-3 col-md-6 col-sm-6 col-xs-12">\\n                    <div class="wb-traffic-inner notika-shadow sm-res-mg-t-30 tb-res-mg-t-30 dk-res-mg-t-30">\\n                        <div class="website-traffic-ctn">\\n                            <h2>\', escape=False)\nresponse.write(DICT["hh10312"])\nresponse.write(\'<span class="counter">40,000</span></h2>\\n                            <p>Total Online Sales</p>\\n                        </div>\\n                        <div class="sparkline-bar-stats3">4,2,8,2,5,6,3,8,3,5,9,5</div>\\n                    </div>\\n                </div>\\n                <div class="col-lg-3 col-md-6 col-sm-6 col-xs-12">\\n                    <div class="wb-traffic-inner notika-shadow sm-res-mg-t-30 tb-res-mg-t-30 dk-res-mg-t-30">\\n                        <div class="website-traffic-ctn">\\n                            <h2><span class="counter">1,000</span></h2>\\n                            <p>\', escape=False)\nresponse.write(DICT["pa10313"])\nresponse.write(\'</p>\\n                        </div>\\n                        <div class="sparkline-bar-stats4">2,4,8,4,5,7,4,7,3,5,7,5</div>\\n                    </div>\\n                </div>\\n            </div>\\n        </div>\\n    </div>\\n    <!-- End Status area-->\\n    <!-- Start Sale Statistic area-->\\n    <div class="sale-statistic-area">\\n        <div class="container">\\n            <div class="row">\\n                <div class="col-lg-9 col-md-8 col-sm-7 col-xs-12">\\n                    <div class="sale-statistic-inner notika-shadow mg-tb-30">\\n                        <div class="curved-inner-pro">\\n                            <div class="curved-ctn">\\n                                <h2>\', escape=False)\nresponse.write(DICT["hh10314"])\nresponse.write(\'</h2>\\n                                <p>\', escape=False)\nresponse.write(DICT["pa10315"])\nresponse.write(\'</p>\\n                            </div>\\n                        </div>\\n                        <div id="curved-line-chart" class="flot-chart-sts flot-chart"></div>\\n                    </div>\\n                </div>\\n                <div class="col-lg-3 col-md-4 col-sm-5 col-xs-12">\\n                    <div class="statistic-right-area notika-shadow mg-tb-30 sm-res-mg-t-0">\\n                        <div class="past-day-statis">\\n                            <h2>\', escape=False)\nresponse.write(DICT["hh10316"])\nresponse.write(\'</h2>\\n                            <p>\', escape=False)\nresponse.write(DICT["pa10317"])\nresponse.write(\'</p>\\n                        </div>\\n\\t\\t\\t\\t\\t\\t<div class="dash-widget-visits"></div>\\n                        <div class="past-statistic-an">\\n                            <div class="past-statistic-ctn">\\n                                <h3><span class="counter">3,20,000</span></h3>\\n                                <p>\', escape=False)\nresponse.write(DICT["pa10318"])\nresponse.write(\'</p>\\n                            </div>\\n                            <div class="past-statistic-graph">\\n                                <div class="stats-bar"></div>\\n                            </div>\\n                        </div>\\n                        <div class="past-statistic-an">\\n                            <div class="past-statistic-ctn">\\n                                <h3><span class="counter">1,03,000</span></h3>\\n                                <p>\', escape=False)\nresponse.write(DICT["pa10319"])\nresponse.write(\'</p>\\n                            </div>\\n                            <div class="past-statistic-graph">\\n                                <div class="stats-line"></div>\\n                            </div>\\n                        </div>\\n                        <div class="past-statistic-an">\\n                            <div class="past-statistic-ctn">\\n                                <h3><span class="counterspan></h3>\\n                                <p>\', escape=False)\nresponse.write(DICT["pa10321"])\nresponse.write(\'</p>\\n                            </div>\\n                            <div class="past-statistic-graph">\\n                                <div class="stats-bar-2"></div>\\n                            </div>\\n                        </div>\\n                    </div>\\n                </div>\\n            </div>\\n        </div>\\n    </div>\\n    <!-- End Sale Statistic area-->\\n    <!-- Start Email Statistic area-->\\n    <div class="notika-email-post-area">\\n        <div class="container">\\n            <div class="row">\\n                <div class="col-lg-4 col-md-6 col-sm-6 col-xs-12">\\n                    <div class="email-statis-inner notika-shadow">\\n                        <div class="email-ctn-round">\\n                            <div class="email-rdn-hd">\\n\\t\\t\\t\\t\\t\\t\\t\\t<h2>\', escape=False)\nresponse.write(DICT["hh10322"])\nresponse.write(\'</h2>\\n\\t\\t\\t\\t\\t\\t\\t</div>\\n                            <div class="email-statis-wrap">\\n                                <div class="email-round-nock">\\n                                    <input type="text" class="knob" value="0" data-rel="55" data-linecap="round" data-width="130" data-bgcolor="#E4E4E4" data-fgcolor="#00c292" data-thickness=".10" data-readonly="true">\\n                                </div>\\n                                <div class="email-ctn-nock">\\n                                    <p>\', escape=False)\nresponse.write(DICT["pa10323"])\nresponse.write(\'</p>\\n                                </div>\\n                            </div>\\n                            <div class="email-round-gp">\\n                                <div class="email-round-pro">\\n                                    <div class="email-signle-gp">\\n                                        <input type="text" class="knob" value="0" data-rel="75" data-linecap="round" data-width="90" data-bgcolor="#E4E4E4" data-fgcolor="#00c292" data-thickness=".10" data-readonly="true" disabled>\\n                                    </div>\\n                                    <div class="email-ctn-nock">\\n                                        <p>\', escape=False)\nresponse.write(DICT["pa10324"])\nresponse.write(\'</p>\\n                                    </div>\\n                                </div>\\n                                <div class="email-round-pro">\\n                                    <div class="email-signle-gp">\\n                                        <input type="text" class="knob" value="0" data-rel="35" data-linecap="round" data-width="90" data-bgcolor="#E4E4E4" data-fgcolor="#00c292" data-thickness=".10" data-readonly="true" disabled>\\n                                    </div>\\n                                    <div class="email-ctn-nock">\\n                                        <p>\', escape=False)\nresponse.write(DICT["pa10325"])\nresponse.write(\'</p>\\n                                    </div>\\n                                </div>\\n                                <div class="email-round-pro sm-res-ds-n lg-res-mg-bl">\\n                                    <div class="email-signle-gp">\\n                                        <input type="text" class="knob" value="0" data-rel="45" data-linecap="round" data-width="90" data-bgcolor="#E4E4E4" data-fgcolor="#00c292" data-thickness=".10" data-readonly="true" disabled>\\n                                    </div>\\n                                    <div class="email-ctn-nock">\\n                                        <p>\', escape=False)\nresponse.write(DICT["pa10326"])\nresponse.write(\'</p>\\n                                    </div>\\n                                </div>\\n                            </div>\\n                        </div>\\n                    </div>\\n                </div>\\n                <div class="col-lg-4 col-md-6 col-sm-6 col-xs-12">\\n                    <div class="recent-post-wrapper notika-shadow sm-res-mg-t-30 tb-res-ds-n dk-res-ds">\\n                        <div class="recent-post-ctn">\\n                            <div class="recent-post-title">\\n                                <h2>\', escape=False)\nresponse.write(DICT["hh10327"])\nresponse.write(\'</h2>\\n                            </div>\\n                        </div>\\n                        <div class="recent-post-items">\\n                            <div class="recent-post-signle rct-pt-mg-wp">\\n                                <a href="#">\\n                                    <div class="recent-post-flex">\\n                                        <div class="recent-post-img">\\n                                            <img src="\', escape=False)\nresponse.write(URL(\'static\',\'template/img/post/2.jpg\'))\nresponse.write(\'" alt="" />\\n                                        </div>\\n                                        <div class="recent-post-it-ctn">\\n                                            <h2>\', escape=False)\nresponse.write(DICT["hh10329"])\nresponse.write(\'</h2>\\n                                            <p>\', escape=False)\nresponse.write(DICT["pa10330"])\nresponse.write(\'</p>\\n                                        </div>\\n                                    </div>\\n                                </a>\\n                            </div>\\n                            <div class="recent-post-signle">\\n                                <a href="#">\\n                                    <div class="recent-post-flex rct-pt-mg">\\n                                        <div class="recent-post-img">\\n                                            <img src="\', escape=False)\nresponse.write(URL(\'static\',\'template/img/post/1.jpg\'))\nresponse.write(\'" alt="" />\\n                                        </div>\\n                                        <div class="recent-post-it-ctn">\\n                                            <h2>\', escape=False)\nresponse.write(DICT["hh10332"])\nresponse.write(\'</h2>\\n                                            <p>\', escape=False)\nresponse.write(DICT["pa10333"])\nresponse.write(\'</p>\\n                                        </div>\\n                                    </div>\\n                                </a>\\n                            </div>\\n                            <div class="recent-post-signle">\\n                                <a href="#">\\n                                    <div class="recent-post-flex rct-pt-mg">\\n                                        <div class="recent-post-img">\\n                                            <img src="\', escape=False)\nresponse.write(URL(\'static\',\'template/img/post/4.jpg\'))\nresponse.write(\'" alt="" />\\n                                        </div>\\n                                        <div class="recent-post-it-ctn">\\n                                            <h2>\', escape=False)\nresponse.write(DICT["hh10335"])\nresponse.write(\'</h2>\\n                                            <p>\', escape=False)\nresponse.write(DICT["pa10336"])\nresponse.write(\'</p>\\n                                        </div>\\n                                    </div>\\n                                </a>\\n                            </div>\\n                            <div class="recent-post-signle">\\n                                <a href="#">\\n                                    <div class="recent-post-flex rct-pt-mg">\\n                                        <div class="recent-post-img">\\n                                            <img src="\', escape=False)\nresponse.write(URL(\'static\',\'template/img/post/2.jpg\'))\nresponse.write(\'" alt="" />\\n                                        </div>\\n                                        <div class="recent-post-it-ctn">\\n                                            <h2>\', escape=False)\nresponse.write(DICT["hh10338"])\nresponse.write(\'</h2>\\n                                            <p>\', escape=False)\nresponse.write(DICT["pa10339"])\nresponse.write(\'</p>\\n                                        </div>\\n                                    </div>\\n                                </a>\\n                            </div>\\n                            <div class="recent-post-signle">\\n                                <a href="#">\\n                                    <div class="recent-post-flex rct-pt-mg">\\n                                        <div class="recent-post-img">\\n                                            <img src="\', escape=False)\nresponse.write(URL(\'static\',\'template/img/post/1.jpg\'))\nresponse.write(\'" alt="" />\\n                                        </div>\\n                                        <div class="recent-post-it-ctn">\\n                                            <h2>\', escape=False)\nresponse.write(DICT["hh10341"])\nresponse.write(\'</h2>\\n                                            <p>\', escape=False)\nresponse.write(DICT["pa10342"])\nresponse.write(\'</p>\\n                                        </div>\\n                                    </div>\\n                                </a>\\n                            </div>\\n                            <div class="recent-post-signle">\\n                                <a href="#">\\n                                    <div class="recent-post-flex rc-ps-vw">\\n                                        <div class="recent-post-line rct-pt-mg">\\n                                            <p>\', escape=False)\nresponse.write(DICT["pa10343"])\nresponse.write(\'</p>\\n                                        </div>\\n                                    </div>\\n                                </a>\\n                            </div>\\n                        </div>\\n                    </div>\\n                </div>\\n                <div class="col-lg-4 col-md-6 col-sm-6 col-xs-12">\\n                    <div class="recent-items-wp notika-shadow sm-res-mg-t-30">\\n                        <div class="rc-it-ltd">\\n                            <div class="recent-items-ctn">\\n                                <div class="recent-items-title">\\n                                    <h2>\', escape=False)\nresponse.write(DICT["hh10344"])\nresponse.write(\'</h2>\\n                                </div>\\n                            </div>\\n                            <div class="recent-items-inn">\\n                                <table class="table table-inner table-vmiddle">\\n                                    \\n<thead>\\n<tr>\\n    <th>ID</th>\\n    <th>\\xd0\\xb7\\xd0\\xb7\\xd0\\xb7\\xd0\\xb7\\xd0\\xb7\\xd0\\xb7</th>\\n    <th>Name</th>\\n    <th>Price</th>\\n</tr>\\n</thead>\\n\\n<tbody>\\n\', escape=False)\nquery4= db.indextable0.id > 0\nresponse.write(\'\\n\', escape=False)\nresults4= db(query4).select()\nresponse.write(\'\\n\', escape=False)\nif not results4 is None:\n    response.write(\'\\n\', escape=False)\n    for row in results4:\n        response.write(\'\\n<tr>\\n    <td>\', escape=False)\n        response.write(row.f0)\n        response.write(\'</td>\\n    <td>\', escape=False)\n        response.write(row.f1)\n        response.write(\'</td>\\n    <td>\', escape=False)\n        response.write(row.f2)\n        response.write(\'</td>\\n    <td>\', escape=False)\n        response.write(row.f3)\n        response.write(\'</td>\\n</tr>\\n\', escape=False)\n        pass\n    response.write(\'\\n\', escape=False)\n    pass\nresponse.write(\'\\n</tbody>\\n\\n                                </table>\\n<div  id=divID5 style="heigth:50%;margin 0;display:inline-flex;padding: 0 5px 2px 5px;background-color:#F0FFF0;color:black;border: 1px dashed red;" >\\n                   <small>indextable0</small>\\n</div>\\n\\n <script>\\n setTimeout(function(){\\n  if ($(\\\'#divID5\\\').length > 0) {\\n    $(\\\'#divID5\\\').remove();\\n  } \\n}, 15000)\\n </script>\\n                            </div>\\n\\t\\t\\t\\t\\t\\t\\t<div id="recent-items-chart" class="flot-chart-items flot-chart vt-ct-it tb-rc-it-res"></div>\\n                        </div>\\n                    </div>\\n                </div>\\n            </div>\\n        </div>\\n    </div>\\n    <!-- End Email Statistic area-->\\n    <!-- Start Realtime sts area-->\\n    <div class="realtime-statistic-area">\\n        <div class="container">\\n            <div class="row">\\n                <div class="col-lg-4 col-md-6 col-sm-6 col-xs-12">\\n                    <div class="realtime-wrap notika-shadow mg-t-30">\\n                        <div class="realtime-ctn">\\n                            <div class="realtime-title">\\n                                <h2>\', escape=False)\nresponse.write(DICT["hh10345"])\nresponse.write(\'</h2>\\n                            </div>\\n                        </div>\\n                        <div class="realtime-visitor-ctn">\\n                            <div class="realtime-vst-sg">\\n                                <h4><span class="counter">4,35,456</span></h4>\\n                                <p>\', escape=False)\nresponse.write(DICT["pa10346"])\nresponse.write(\'</p>\\n                            </div>\\n                            <div class="realtime-vst-sg">\\n                                <h4><span class="counter">4,566</span></h4>\\n                                <p>\', escape=False)\nresponse.write(DICT["pa10347"])\nresponse.write(\'</p>\\n                            </div>\\n                        </div>\\n                        <div class="realtime-map">\\n                            <div class="vectorjsmarp" id="world-map"></div>\\n                        </div>\\n                        <div class="realtime-country-ctn realtime-ltd-mg">\\n                            <h5>\', escape=False)\nresponse.write(DICT["hh10348"])\nresponse.write(\'</h5>\\n                            <div class="realtime-ctn-bw">\\n                                <div class="realtime-ctn-st">\\n                                    <span><img src="\', escape=False)\nresponse.write(URL(\'static\',\'template/img/country/1.png\'))\nresponse.write(\'" alt="" /></span> <span>\', escape=False)\nresponse.write(DICT["sp10350"])\nresponse.write(\'</span>\\n                                </div>\\n                                <div class="realtime-bw">\\n                                    <span>\', escape=False)\nresponse.write(DICT["sp10351"])\nresponse.write(\'</span>\\n                                </div>\\n                                <div class="realtime-bw">\\n                                    <span>\', escape=False)\nresponse.write(DICT["sp10352"])\nresponse.write(\'</span>\\n                                </div>\\n                            </div>\\n                        </div>\\n                        <div class="realtime-country-ctn">\\n                            <h5>\', escape=False)\nresponse.write(DICT["hh10353"])\nresponse.write(\'</h5>\\n                            <div class="realtime-ctn-bw">\\n                                <div class="realtime-ctn-st">\\n                                    <span><img src="\', escape=False)\nresponse.write(URL(\'static\',\'template/img/country/2.png\'))\nresponse.write(\'" alt="" /></span> <span>\', escape=False)\nresponse.write(DICT["sp10355"])\nresponse.write(\'</span>\\n                                </div>\\n                                <div class="realtime-bw">\\n                                    <span>\', escape=False)\nresponse.write(DICT["sp10356"])\nresponse.write(\'</span>\\n                                </div>\\n                                <div class="realtime-bw">\\n                                    <span>\', escape=False)\nresponse.write(DICT["sp10357"])\nresponse.write(\'</span>\\n                                </div>\\n                            </div>\\n                        </div>\\n                        <div class="realtime-country-ctn">\\n                            <h5>\', escape=False)\nresponse.write(DICT["hh10358"])\nresponse.write(\'</h5>\\n                            <div class="realtime-ctn-bw">\\n                                <div class="realtime-ctn-st">\\n                                    <span><img src="\', escape=False)\nresponse.write(URL(\'static\',\'template/img/country/3.png\'))\nresponse.write(\'" alt="" /></span> <span>\', escape=False)\nresponse.write(DICT["sp10360"])\nresponse.write(\'</span>\\n                                </div>\\n                                <div class="realtime-bw">\\n                                    <span>\', escape=False)\nresponse.write(DICT["sp10361"])\nresponse.write(\'</span>\\n                                </div>\\n                                <div class="realtime-bw">\\n                                    <span>\', escape=False)\nresponse.write(DICT["sp10362"])\nresponse.write(\'</span>\\n                                </div>\\n                            </div>\\n                        </div>\\n                    </div>\\n                </div>\\n                <div class="col-lg-4 col-md-6 col-sm-6 col-xs-12">\\n                    <div class="add-todo-list notika-shadow mg-t-30">\\n                        <div class="realtime-ctn">\\n                            <div class="realtime-title">\\n                                <h2>\', escape=False)\nresponse.write(DICT["hh10363"])\nresponse.write(\'</h2>\\n                            </div>\\n                        </div>\\n                        <div class="card-box">\\n                            <div class="todoapp">\\n                                <div class="row">\\n                                    <div class="col-sm-6 col-md-6 col-sm-6 col-xs-12">\\n                                        <h4 id="todo-message"><span id="todo-remaining"></span> of <span id="todo-total"></span> remaining</h4>\\n                                    </div>\\n                                    <div class="col-sm-6 col-md-6 col-sm-6 col-xs-12">\\n                                        <div class="notika-todo-btn">\\n                                            <a href="#" class="pull-right btn btn-primary btn-sm" id="btn-archive">\', escape=False)\nresponse.write(DICT["aa10364"])\nresponse.write(\'</a>\\n                                        </div>\\n                                    </div>\\n                                </div>\\n                                <div class="notika-todo-scrollbar">\\n                                    <ul class="list-group no-margn todo-list" id="todo-list"></ul>\\n                                </div>\\n                                <div id="todo-form">\\n                                    <div class="row">\\n                                        <div class="col-sm-12 col-md-12 col-sm-12 col-xs-12 todo-inputbar">\\n                                            <div class="form-group todo-flex">\\n                                                <div class="nk-int-st">\\n                                                    <input type="text" id="todo-input-text" name="todo-input-text" class="form-control" placeholder="\', escape=False)\nresponse.write(DICT["pb10365"])\nresponse.write(\'">\\n                                                </div>\\n                                                <div class="todo-send">\\n                                                    <button class="btn-primary btn-md btn-block btn notika-add-todo" type="button" id="todo-btn-submit">\', escape=False)\nresponse.write(DICT["bu10366"])\nresponse.write(\'</button>\\n                                                </div>\\n                                            </div>\\n                                        </div>\\n                                    </div>\\n                                </div>\\n                            </div>\\n                        </div>\\n                    </div>\\n                </div>\\n                <div class="col-lg-4 col-md-6 col-sm-6 col-xs-12">\\n                    <div class="notika-chat-list notika-shadow mg-t-30 tb-res-ds-n dk-res-ds">\\n                        <div class="realtime-ctn">\\n                            <div class="realtime-title">\\n                                <h2>\', escape=False)\nresponse.write(DICT["hh10367"])\nresponse.write(\'</h2>\\n                            </div>\\n                        </div>\\n                        <div class="card-box">\\n                            <div class="chat-conversation">\\n                                <div class="widgets-chat-scrollbar">\\n                                    <ul class="conversation-list">\\n                                        <li class="clearfix">\\n                                            <div class="chat-avatar">\\n                                                <img src="\', escape=False)\nresponse.write(URL(\'static\',\'template/img/post/1.jpg\'))\nresponse.write(\'" alt="male">\\n                                                <i>\', escape=False)\nresponse.write(DICT["ii10369"])\nresponse.write(\'</i>\\n                                            </div>\\n                                            <div class="conversation-text">\\n                                                <div class="ctext-wrap">\\n                                                    <i>\', escape=False)\nresponse.write(DICT["ii10370"])\nresponse.write(\'</i>\\n                                                    <p>\\n                                                        Hello!\\n                                                    </p>\\n                                                </div>\\n                                            </div>\\n                                        </li>\\n                                        <li class="clearfix odd">\\n                                            <div class="chat-avatar">\\n                                                <img src="\', escape=False)\nresponse.write(URL(\'static\',\'template/img/post/2.jpg\'))\nresponse.write(\'" alt="Female">\\n                                                <i>\', escape=False)\nresponse.write(DICT["ii10372"])\nresponse.write(\'</i>\\n                                            </div>\\n                                            <div class="conversation-text">\\n                                                <div class="ctext-wrap chat-widgets-cn">\\n                                                    <i>\', escape=False)\nresponse.write(DICT["ii10373"])\nresponse.write(\'</i>\\n                                                    <p>\\n                                                        Hi, How are you? What about our next meeting?\\n                                                    </p>\\n                                                </div>\\n                                            </div>\\n                                        </li>\\n                                        <li class="clearfix">\\n                                            <div class="chat-avatar">\\n                                                <img src="\', escape=False)\nresponse.write(URL(\'static\',\'template/img/post/1.jpg\'))\nresponse.write(\'" alt="male">\\n                                                <i>\', escape=False)\nresponse.write(DICT["ii10375"])\nresponse.write(\'</i>\\n                                            </div>\\n                                            <div class="conversation-text">\\n                                                <div class="ctext-wrap">\\n                                                    <i>\', escape=False)\nresponse.write(DICT["ii10376"])\nresponse.write(\'</i>\\n                                                    <p>\\n                                                        Yeah everything is fine\\n                                                    </p>\\n                                                </div>\\n                                            </div>\\n                                        </li>\\n                                        <li class="clearfix odd">\\n                                            <div class="chat-avatar">\\n                                                <img src="\', escape=False)\nresponse.write(URL(\'static\',\'template/img/post/2.jpg\'))\nresponse.write(\'" alt="male">\\n                                                <i>\', escape=False)\nresponse.write(DICT["ii10378"])\nresponse.write(\'</i>\\n                                            </div>\\n                                            <div class="conversation-text">\\n                                                <div class="ctext-wrap chat-widgets-cn">\\n                                                    <i>\', escape=False)\nresponse.write(DICT["ii10379"])\nresponse.write(\'</i>\\n                                                    <p>\\n                                                        Wow that"s great\\n                                                    </p>\\n                                                </div>\\n                                            </div>\\n                                        </li>\\n                                        <li class="clearfix">\\n                                            <div class="chat-avatar">\\n                                                <img src="\', escape=False)\nresponse.write(URL(\'static\',\'template/img/post/1.jpg\'))\nresponse.write(\'" alt="male">\\n                                                <i>\', escape=False)\nresponse.write(DICT["ii10381"])\nresponse.write(\'</i>\\n                                            </div>\\n                                            <div class="conversation-text">\\n                                                <div class="ctext-wrap">\\n                                                    <i>\', escape=False)\nresponse.write(DICT["ii10382"])\nresponse.write(\'</i>\\n                                                    <p>\\n                                                        Doing Better i am thinking about that..\\n                                                    </p>\\n                                                </div>\\n                                            </div>\\n                                        </li>\\n                                        <li class="clearfix odd">\\n                                            <div class="chat-avatar">\\n                                                <img src="\', escape=False)\nresponse.write(URL(\'static\',\'template/img/post/2.jpg\'))\nresponse.write(\'" alt="male">\\n                                                <i>\', escape=False)\nresponse.write(DICT["ii10384"])\nresponse.write(\'</i>\\n                                            </div>\\n                                            <div class="conversation-text">\\n                                                <div class="ctext-wrap chat-widgets-cn">\\n                                                    <i>\', escape=False)\nresponse.write(DICT["ii10385"])\nresponse.write(\'</i>\\n                                                    <p>\\n                                                        Wow, You also tallent man...\\n                                                    </p>\\n                                                </div>\\n                                            </div>\\n                                        </li>\\n                                    </ul>\\n                                </div>\\n                                <div class="chat-widget-input">\\n                                    <div class="row">\\n                                        <div class="col-sm-12 col-md-12 col-sm-12 col-xs-12 chat-inputbar">\\n                                            <div class="form-group todo-flex">\\n                                                <div class="nk-int-st">\\n                                                    <input type="text" class="form-control chat-input" placeholder="\', escape=False)\nresponse.write(DICT["pb10386"])\nresponse.write(\'">\\n                                                </div>\\n                                                <div class="chat-send">\\n                                                    <button type="submit" class="btn btn-md btn-primary btn-block notika-chat-btn">\', escape=False)\nresponse.write(DICT["bu10387"])\nresponse.write(\'</button>\\n                                                </div>\\n                                            </div>\\n                                        </div>\\n                                    </div>\\n                                </div>\\n                            </div>\\n                        </div>\\n                    </div>\\n                </div>\\n            </div>\\n        </div>\\n    </div>\\n    <!-- End Realtime sts area-->\\n    <!-- Start Footer area-->\\n    <div class="footer-copyright-area">\\n        <div class="container">\\n            <div class="row">\\n                <div class="col-lg-12 col-md-12 col-sm-12 col-xs-12">\\n                    <div class="footer-copy-right">\\n                        <p>Copyright \\xc2\\xa9 2018 \\n. All rights reserved. Template by <a href="https://colorlib.com">\', escape=False)\nresponse.write(DICT["aa10389"])\nresponse.write(\'</a>\', escape=False)\nresponse.write(DICT["pc10388"])\nresponse.write(\'</p>\\n                    </div>\\n                </div>\\n            </div>\\n        </div>\\n    </div>\\n    <!-- End Footer area-->\\n    <!-- jquery\\n\\t\\t============================================ -->\\n    <script src="\', escape=False)\nresponse.write(URL(\'static\',\'template/js/vendor/jquery-1.12.4.min.js\'))\nresponse.write(\'"></script>\\n    <!-- bootstrap JS\\n\\t\\t============================================ -->\\n    <script src="\', escape=False)\nresponse.write(URL(\'static\',\'template/js/bootstrap.min.js\'))\nresponse.write(\'"></script>\\n    <!-- wow JS\\n\\t\\t============================================ -->\\n    <script src="\', escape=False)\nresponse.write(URL(\'static\',\'template/js/wow.min.js\'))\nresponse.write(\'"></script>\\n    <!-- price-slider JS\\n\\t\\t============================================ -->\\n    <script src="\', escape=False)\nresponse.write(URL(\'static\',\'template/js/jquery-price-slider.js\'))\nresponse.write(\'"></script>\\n    <!-- owl.carousel JS\\n\\t\\t============================================ -->\\n    <script src="\', escape=False)\nresponse.write(URL(\'static\',\'template/js/owl.carousel.min.js\'))\nresponse.write(\'"></script>\\n    <!-- scrollUp JS\\n\\t\\t============================================ -->\\n    <script src="\', escape=False)\nresponse.write(URL(\'static\',\'template/js/jquery.scrollUp.min.js\'))\nresponse.write(\'"></script>\\n    <!-- meanmenu JS\\n\\t\\t============================================ -->\\n    <script src="\', escape=False)\nresponse.write(URL(\'static\',\'template/js/meanmenu/jquery.meanmenu.js\'))\nresponse.write(\'"></script>\\n    <!-- counterup JS\\n\\t\\t============================================ -->\\n    <script src="\', escape=False)\nresponse.write(URL(\'static\',\'template/js/counterup/jquery.counterup.min.js\'))\nresponse.write(\'"></script>\\n    <script src="\', escape=False)\nresponse.write(URL(\'static\',\'template/js/counterup/waypoints.min.js\'))\nresponse.write(\'"></script>\\n    <script src="\', escape=False)\nresponse.write(URL(\'static\',\'template/js/counterup/counterup-active.js\'))\nresponse.write(\'"></script>\\n    <!-- mCustomScrollbar JS\\n\\t\\t============================================ -->\\n    <script src="\', escape=False)\nresponse.write(URL(\'static\',\'template/js/scrollbar/jquery.mCustomScrollbar.concat.min.js\'))\nresponse.write(\'"></script>\\n    <!-- jvectormap JS\\n\\t\\t============================================ -->\\n    <script src="\', escape=False)\nresponse.write(URL(\'static\',\'template/js/jvectormap/jquery-jvectormap-2.0.2.min.js\'))\nresponse.write(\'"></script>\\n    <script src="\', escape=False)\nresponse.write(URL(\'static\',\'template/js/jvectormap/jquery-jvectormap-world-mill-en.js\'))\nresponse.write(\'"></script>\\n    <script src="\', escape=False)\nresponse.write(URL(\'static\',\'template/js/jvectormap/jvectormap-active.js\'))\nresponse.write(\'"></script>\\n    <!-- sparkline JS\\n\\t\\t============================================ -->\\n    <script src="\', escape=False)\nresponse.write(URL(\'static\',\'template/js/sparkline/jquery.sparkline.min.js\'))\nresponse.write(\'"></script>\\n    <script src="\', escape=False)\nresponse.write(URL(\'static\',\'template/js/sparkline/sparkline-active.js\'))\nresponse.write(\'"></script>\\n    <!-- sparkline JS\\n\\t\\t============================================ -->\\n    <script src="\', escape=False)\nresponse.write(URL(\'static\',\'template/js/flot/jquery.flot.js\'))\nresponse.write(\'"></script>\\n    <script src="\', escape=False)\nresponse.write(URL(\'static\',\'template/js/flot/jquery.flot.resize.js\'))\nresponse.write(\'"></script>\\n    <script src="\', escape=False)\nresponse.write(URL(\'static\',\'template/js/flot/curvedLines.js\'))\nresponse.write(\'"></script>\\n    <script src="\', escape=False)\nresponse.write(URL(\'static\',\'template/js/flot/flot-active.js\'))\nresponse.write(\'"></script>\\n    <!-- knob JS\\n\\t\\t============================================ -->\\n    <script src="\', escape=False)\nresponse.write(URL(\'static\',\'template/js/knob/jquery.knob.js\'))\nresponse.write(\'"></script>\\n    <script src="\', escape=False)\nresponse.write(URL(\'static\',\'template/js/knob/jquery.appear.js\'))\nresponse.write(\'"></script>\\n    <script src="\', escape=False)\nresponse.write(URL(\'static\',\'template/js/knob/knob-active.js\'))\nresponse.write(\'"></script>\\n    <!--  wave JS\\n\\t\\t============================================ -->\\n    <script src="\', escape=False)\nresponse.write(URL(\'static\',\'template/js/wave/waves.min.js\'))\nresponse.write(\'"></script>\\n    <script src="\', escape=False)\nresponse.write(URL(\'static\',\'template/js/wave/wave-active.js\'))\nresponse.write(\'"></script>\\n    <!--  todo JS\\n\\t\\t============================================ -->\\n    <script src="\', escape=False)\nresponse.write(URL(\'static\',\'template/js/todo/jquery.todo.js\'))\nresponse.write(\'"></script>\\n    <!-- plugins JS\\n\\t\\t============================================ -->\\n    <script src="\', escape=False)\nresponse.write(URL(\'static\',\'template/js/plugins.js\'))\nresponse.write(\'"></script>\\n\\t<!--  Chat JS\\n\\t\\t============================================ -->\\n    <script src="\', escape=False)\nresponse.write(URL(\'static\',\'template/js/chat/moment.min.js\'))\nresponse.write(\'"></script>\\n    <script src="\', escape=False)\nresponse.write(URL(\'static\',\'template/js/chat/jquery.chat.js\'))\nresponse.write(\'"></script>\\n    <!-- main JS\\n\\t\\t============================================ -->\\n    <script src="\', escape=False)\nresponse.write(URL(\'static\',\'template/js/main.js\'))\nresponse.write(\'"></script>\\n\\t<!-- tawk chat JS\\n\\t\\t============================================ -->\\n    <script src="\', escape=False)\nresponse.write(URL(\'static\',\'template/js/tawk-chat.js\'))\nresponse.write(\'"></script>\\n</body>\\n\\n</html>\', escape=False)'
p7
sS'snapshot'
p8
(dp9
S'exception'
p10
(dp11
S'__getslice__'
p12
S"<method-wrapper '__getslice__' of exceptions.AttributeError object>"
p13
sS'__str__'
p14
S"<method-wrapper '__str__' of exceptions.AttributeError object>"
p15
sS'__reduce__'
p16
S'<built-in method __reduce__ of exceptions.AttributeError object>'
p17
sS'__dict__'
p18
S'{}'
p19
sS'message'
p20
S'"\'DAL\' object has no attribute \'indextable0\'"'
p21
sS'__sizeof__'
p22
S'<built-in method __sizeof__ of exceptions.AttributeError object>'
p23
sS'__init__'
p24
S"<method-wrapper '__init__' of exceptions.AttributeError object>"
p25
sS'__setattr__'
p26
S"<method-wrapper '__setattr__' of exceptions.AttributeError object>"
p27
sS'__reduce_ex__'
p28
S'<built-in method __reduce_ex__ of exceptions.AttributeError object>'
p29
sS'__new__'
p30
S'<built-in method __new__ of type object>'
p31
sS'__format__'
p32
S'<built-in method __format__ of exceptions.AttributeError object>'
p33
sS'__class__'
p34
S"<type 'exceptions.AttributeError'>"
p35
sS'__doc__'
p36
S"'Attribute not found.'"
p37
sS'__getitem__'
p38
S"<method-wrapper '__getitem__' of exceptions.AttributeError object>"
p39
sS'__setstate__'
p40
S'<built-in method __setstate__ of exceptions.AttributeError object>'
p41
sS'__getattribute__'
p42
S"<method-wrapper '__getattribute__' of exceptions.AttributeError object>"
p43
sS'args'
p44
S'("\'DAL\' object has no attribute \'indextable0\'",)'
p45
sS'__subclasshook__'
p46
S'<built-in method __subclasshook__ of type object>'
p47
sS'__unicode__'
p48
S'<built-in method __unicode__ of exceptions.AttributeError object>'
p49
sS'__delattr__'
p50
S"<method-wrapper '__delattr__' of exceptions.AttributeError object>"
p51
sS'__repr__'
p52
S"<method-wrapper '__repr__' of exceptions.AttributeError object>"
p53
sS'__hash__'
p54
S"<method-wrapper '__hash__' of exceptions.AttributeError object>"
p55
ssS'evalue'
p56
S"'DAL' object has no attribute 'indextable0'"
p57
sS'request'
p58
cgluon.html
XML_unpickle
p59
(S's\x1el\x00\x00<div><table><tr><td style="font-weight:bold;vertical-align:top;">ajax</td><td style="vertical-align:top;">:</td><td><div>False</div></td></tr><tr><td style="font-weight:bold;vertical-align:top;">application</td><td style="vertical-align:top;">:</td><td><div>ji105</div></td></tr><tr><td style="font-weight:bold;vertical-align:top;">args</td><td style="vertical-align:top;">:</td><td><div><table></table></div></td></tr><tr><td style="font-weight:bold;vertical-align:top;">cid</td><td style="vertical-align:top;">:</td><td><div>None</div></td></tr><tr><td style="font-weight:bold;vertical-align:top;">client</td><td style="vertical-align:top;">:</td><td><div>10.26.255.68</div></td></tr><tr><td style="font-weight:bold;vertical-align:top;">controller</td><td style="vertical-align:top;">:</td><td><div>default</div></td></tr><tr><td style="font-weight:bold;vertical-align:top;">cookies</td><td style="vertical-align:top;">:</td><td><div><table><tr><td style="font-weight:bold;vertical-align:top;">TawkConnectionTime</td><td style="vertical-align:top;">:</td><td><div>0<table><tr><td style="font-weight:bold;vertical-align:top;">comment</td><td style="vertical-align:top;">:</td><td><div></div></td></tr><tr><td style="font-weight:bold;vertical-align:top;">domain</td><td style="vertical-align:top;">:</td><td><div></div></td></tr><tr><td style="font-weight:bold;vertical-align:top;">expires</td><td style="vertical-align:top;">:</td><td><div></div></td></tr><tr><td style="font-weight:bold;vertical-align:top;">httponly</td><td style="vertical-align:top;">:</td><td><div></div></td></tr><tr><td style="font-weight:bold;vertical-align:top;">max-age</td><td style="vertical-align:top;">:</td><td><div></div></td></tr><tr><td style="font-weight:bold;vertical-align:top;">path</td><td style="vertical-align:top;">:</td><td><div></div></td></tr><tr><td style="font-weight:bold;vertical-align:top;">secure</td><td style="vertical-align:top;">:</td><td><div></div></td></tr><tr><td style="font-weight:bold;vertical-align:top;">version</td><td style="vertical-align:top;">:</td><td><div></div></td></tr></table></div></td></tr><tr><td style="font-weight:bold;vertical-align:top;">session_id_admin</td><td style="vertical-align:top;">:</td><td><div>10.26.255.68-8b94d021-32c2-4020-a7cf-6e4e4a9fc22c<table><tr><td style="font-weight:bold;vertical-align:top;">comment</td><td style="vertical-align:top;">:</td><td><div></div></td></tr><tr><td style="font-weight:bold;vertical-align:top;">domain</td><td style="vertical-align:top;">:</td><td><div></div></td></tr><tr><td style="font-weight:bold;vertical-align:top;">expires</td><td style="vertical-align:top;">:</td><td><div></div></td></tr><tr><td style="font-weight:bold;vertical-align:top;">httponly</td><td style="vertical-align:top;">:</td><td><div></div></td></tr><tr><td style="font-weight:bold;vertical-align:top;">max-age</td><td style="vertical-align:top;">:</td><td><div></div></td></tr><tr><td style="font-weight:bold;vertical-align:top;">path</td><td style="vertical-align:top;">:</td><td><div></div></td></tr><tr><td style="font-weight:bold;vertical-align:top;">secure</td><td style="vertical-align:top;">:</td><td><div></div></td></tr><tr><td style="font-weight:bold;vertical-align:top;">version</td><td style="vertical-align:top;">:</td><td><div></div></td></tr></table></div></td></tr><tr><td style="font-weight:bold;vertical-align:top;">session_id_ji103</td><td style="vertical-align:top;">:</td><td><div>10.26.255.68-088d6116-a165-4a18-ab2d-f8b1bc24b2a5<table><tr><td style="font-weight:bold;vertical-align:top;">comment</td><td style="vertical-align:top;">:</td><td><div></div></td></tr><tr><td style="font-weight:bold;vertical-align:top;">domain</td><td style="vertical-align:top;">:</td><td><div></div></td></tr><tr><td style="font-weight:bold;vertical-align:top;">expires</td><td style="vertical-align:top;">:</td><td><div></div></td></tr><tr><td style="font-weight:bold;vertical-align:top;">httponly</td><td style="vertical-align:top;">:</td><td><div></div></td></tr><tr><td style="font-weight:bold;vertical-align:top;">max-age</td><td style="vertical-align:top;">:</td><td><div></div></td></tr><tr><td style="font-weight:bold;vertical-align:top;">path</td><td style="vertical-align:top;">:</td><td><div></div></td></tr><tr><td style="font-weight:bold;vertical-align:top;">secure</td><td style="vertical-align:top;">:</td><td><div></div></td></tr><tr><td style="font-weight:bold;vertical-align:top;">version</td><td style="vertical-align:top;">:</td><td><div></div></td></tr></table></div></td></tr><tr><td style="font-weight:bold;vertical-align:top;">session_id_ji105</td><td style="vertical-align:top;">:</td><td><div>10.26.255.68-89105eb5-c4e9-4576-9ae8-221ddd42431a<table><tr><td style="font-weight:bold;vertical-align:top;">comment</td><td style="vertical-align:top;">:</td><td><div></div></td></tr><tr><td style="font-weight:bold;vertical-align:top;">domain</td><td style="vertical-align:top;">:</td><td><div></div></td></tr><tr><td style="font-weight:bold;vertical-align:top;">expires</td><td style="vertical-align:top;">:</td><td><div></div></td></tr><tr><td style="font-weight:bold;vertical-align:top;">httponly</td><td style="vertical-align:top;">:</td><td><div></div></td></tr><tr><td style="font-weight:bold;vertical-align:top;">max-age</td><td style="vertical-align:top;">:</td><td><div></div></td></tr><tr><td style="font-weight:bold;vertical-align:top;">path</td><td style="vertical-align:top;">:</td><td><div></div></td></tr><tr><td style="font-weight:bold;vertical-align:top;">secure</td><td style="vertical-align:top;">:</td><td><div></div></td></tr><tr><td style="font-weight:bold;vertical-align:top;">version</td><td style="vertical-align:top;">:</td><td><div></div></td></tr></table></div></td></tr><tr><td style="font-weight:bold;vertical-align:top;">session_id_ji163</td><td style="vertical-align:top;">:</td><td><div>10.26.255.68-3ba502b4-094a-4e24-b5ac-5bf524ae907d<table><tr><td style="font-weight:bold;vertical-align:top;">comment</td><td style="vertical-align:top;">:</td><td><div></div></td></tr><tr><td style="font-weight:bold;vertical-align:top;">domain</td><td style="vertical-align:top;">:</td><td><div></div></td></tr><tr><td style="font-weight:bold;vertical-align:top;">expires</td><td style="vertical-align:top;">:</td><td><div></div></td></tr><tr><td style="font-weight:bold;vertical-align:top;">httponly</td><td style="vertical-align:top;">:</td><td><div></div></td></tr><tr><td style="font-weight:bold;vertical-align:top;">max-age</td><td style="vertical-align:top;">:</td><td><div></div></td></tr><tr><td style="font-weight:bold;vertical-align:top;">path</td><td style="vertical-align:top;">:</td><td><div></div></td></tr><tr><td style="font-weight:bold;vertical-align:top;">secure</td><td style="vertical-align:top;">:</td><td><div></div></td></tr><tr><td style="font-weight:bold;vertical-align:top;">version</td><td style="vertical-align:top;">:</td><td><div></div></td></tr></table></div></td></tr></table></div></td></tr><tr><td style="font-weight:bold;vertical-align:top;">env</td><td style="vertical-align:top;">:</td><td><div><table><tr><td style="font-weight:bold;vertical-align:top;">HTTP_ACCEPT</td><td style="vertical-align:top;">:</td><td><div>text/html,application/xhtml+xml,application/xml;q=0.9,*/*;q=0.8</div></td></tr><tr><td style="font-weight:bold;vertical-align:top;">HTTP_ACCEPT_ENCODING</td><td style="vertical-align:top;">:</td><td><div>gzip, deflate, br</div></td></tr><tr><td style="font-weight:bold;vertical-align:top;">HTTP_ACCEPT_LANGUAGE</td><td style="vertical-align:top;">:</td><td><div>ru-RU,ru;q=0.8,en-US;q=0.5,en;q=0.3</div></td></tr><tr><td style="font-weight:bold;vertical-align:top;">HTTP_CACHE_CONTROL</td><td style="vertical-align:top;">:</td><td><div>max-age=0</div></td></tr><tr><td style="font-weight:bold;vertical-align:top;">HTTP_CONNECTION</td><td style="vertical-align:top;">:</td><td><div>close</div></td></tr><tr><td style="font-weight:bold;vertical-align:top;">HTTP_COOKIE</td><td style="vertical-align:top;">:</td><td><div>session_id_ji163=10.26.255.68-3ba502b4-094a-4e24-b5ac-5bf524ae907d; session_id_ji103=10.26.255.68-088d6116-a165-4a18-ab2d-f8b1bc24b2a5; session_id_ji105=10.26.255.68-89105eb5-c4e9-4576-9ae8-221ddd42431a; TawkConnectionTime=0; __tawkuuid=e::sun.minfindnr.ru::LWstX6JswHXYRzTHI4yIvDkrDPYgiP5nB85iBOWu6St3iAqQF/8QQR+Nxjappr0P::2; session_id_admin=10.26.255.68-8b94d021-32c2-4020-a7cf-6e4e4a9fc22c</div></td></tr><tr><td style="font-weight:bold;vertical-align:top;">HTTP_HOST</td><td style="vertical-align:top;">:</td><td><div>sun.minfindnr.ru</div></td></tr><tr><td style="font-weight:bold;vertical-align:top;">HTTP_REFERER</td><td style="vertical-align:top;">:</td><td><div>https://sun.minfindnr.ru/ji105/default/index_3</div></td></tr><tr><td style="font-weight:bold;vertical-align:top;">HTTP_UPGRADE_INSECURE_REQUESTS</td><td style="vertical-align:top;">:</td><td><div>1</div></td></tr><tr><td style="font-weight:bold;vertical-align:top;">HTTP_USER_AGENT</td><td style="vertical-align:top;">:</td><td><div>Mozilla/5.0 (Windows NT 6.1; rv:67.0) Gecko/20100101 Firefox/67.0</div></td></tr><tr><td style="font-weight:bold;vertical-align:top;">HTTP_X_FORWARDED_BY</td><td style="vertical-align:top;">:</td><td><div>92.242.125.188:443</div></td></tr><tr><td style="font-weight:bold;vertical-align:top;">HTTP_X_FORWARDED_FOR</td><td style="vertical-align:top;">:</td><td><div>10.26.255.68</div></td></tr><tr><td style="font-weight:bold;vertical-align:top;">HTTP_X_FORWARDED_PROTO</td><td style="vertical-align:top;">:</td><td><div>https</div></td></tr><tr><td style="font-weight:bold;vertical-align:top;">HTTP_X_FORWARDED_SSL</td><td style="vertical-align:top;">:</td><td><div>on</div></td></tr><tr><td style="font-weight:bold;vertical-align:top;">HTTP_X_REAL_IP</td><td style="vertical-align:top;">:</td><td><div>10.26.255.68</div></td></tr><tr><td style="font-weight:bold;vertical-align:top;">PATH_INFO</td><td style="vertical-align:top;">:</td><td><div>/ji105/default/index</div></td></tr><tr><td style="font-weight:bold;vertical-align:top;">QUERY_STRING</td><td style="vertical-align:top;">:</td><td><div></div></td></tr><tr><td style="font-weight:bold;vertical-align:top;">RAW_URI</td><td style="vertical-align:top;">:</td><td><div>/ji105/default/index</div></td></tr><tr><td style="font-weight:bold;vertical-align:top;">REMOTE_ADDR</td><td style="vertical-align:top;">:</td><td><div></div></td></tr><tr><td style="font-weight:bold;vertical-align:top;">REQUEST_METHOD</td><td style="vertical-align:top;">:</td><td><div>GET</div></td></tr><tr><td style="font-weight:bold;vertical-align:top;">SCRIPT_NAME</td><td style="vertical-align:top;">:</td><td><div></div></td></tr><tr><td style="font-weight:bold;vertical-align:top;">SERVER_NAME</td><td style="vertical-align:top;">:</td><td><div>sun.minfindnr.ru</div></td></tr><tr><td style="font-weight:bold;vertical-align:top;">SERVER_PORT</td><td style="vertical-align:top;">:</td><td><div>443</div></td></tr><tr><td style="font-weight:bold;vertical-align:top;">SERVER_PROTOCOL</td><td style="vertical-align:top;">:</td><td><div>HTTP/1.0</div></td></tr><tr><td style="font-weight:bold;vertical-align:top;">SERVER_SOFTWARE</td><td style="vertical-align:top;">:</td><td><div>gunicorn/19.1.0</div></td></tr><tr><td style="font-weight:bold;vertical-align:top;">app_folders</td><td style="vertical-align:top;">:</td><td><div>set([&#x27;/home/w2p/web2py/applications/ji103/&#x27;, &#x27;/home/w2p/web2py/applications/ji142/&#x27;, &#x27;/home/w2p/web2py/applications/ji101/&#x27;, &#x27;/home/w2p/web2py/applications/ji178/&#x27;, &#x27;/home/w2p/web2py/applications/ji105/&#x27;, &#x27;/home/w2p/web2py/applications/dmlic/&#x27;, &#x27;/home/w2p/web2py/applications/welcome/&#x27;, &#x27;/home/w2p/web2py/applications/admin/&#x27;, &#x27;/home/w2p/web2py/applications/aji175/&#x27;, &#x27;/home/w2p/web2py/applications/ji174/&#x27;, &#x27;/home/w2p/web2py/applications/newlic/&#x27;, &#x27;/home/w2p/web2py/applications/aji163/&#x27;, &#x27;/home/w2p/web2py/applications/ji108/&#x27;, &#x27;/home/w2p/web2py/applications/ji197/&#x27;, &#x27;/home/w2p/web2py/applications/ji179/&#x27;, &#x27;/home/w2p/web2py/applications/lic/&#x27;, &#x27;/home/w2p/web2py/applications/aji103/&#x27;, &#x27;/home/w2p/web2py/applications/ji145/&#x27;, &#x27;/home/w2p/web2py/applications/ji173/&#x27;, &#x27;/home/w2p/web2py/applications/ji104/&#x27;, &#x27;/home/w2p/web2py/applications/ji100/&#x27;, &#x27;/home/w2p/web2py/applications/ji163/&#x27;, &#x27;/home/w2p/web2py/applications/ji180/&#x27;, &#x27;/home/w2p/web2py/applications/ji175/&#x27;, &#x27;/home/w2p/web2py/applications/gae/&#x27;, &#x27;/home/w2p/web2py/applications/ji190/&#x27;, &#x27;/home/w2p/web2py/applications/ji177/&#x27;, &#x27;/home/w2p/web2py/applications/ji192/&#x27;, &#x27;/home/w2p/web2py/applications/aji105/&#x27;, &#x27;/home/w2p/web2py/applications/ji196/&#x27;])</div></td></tr><tr><td style="font-weight:bold;vertical-align:top;">applications_parent</td><td style="vertical-align:top;">:</td><td><div>/home/w2p/web2py</div></td></tr><tr><td style="font-weight:bold;vertical-align:top;">db_sessions</td><td style="vertical-align:top;">:</td><td><div>set([])</div></td></tr><tr><td style="font-weight:bold;vertical-align:top;">debugging</td><td style="vertical-align:top;">:</td><td><div>False</div></td></tr><tr><td style="font-weight:bold;vertical-align:top;">gluon_parent</td><td style="vertical-align:top;">:</td><td><div>/home/w2p/web2py</div></td></tr><tr><td style="font-weight:bold;vertical-align:top;">gunicorn.socket</td><td style="vertical-align:top;">:</td><td><div>&lt;socket._socketobject object at 0x7fe2ccf55670&gt;</div></td></tr><tr><td style="font-weight:bold;vertical-align:top;">gunicorn_socket</td><td style="vertical-align:top;">:</td><td><div>&lt;socket._socketobject object at 0x7fe2ccf55670&gt;</div></td></tr><tr><td style="font-weight:bold;vertical-align:top;">http_accept</td><td style="vertical-align:top;">:</td><td><div>text/html,application/xhtml+xml,application/xml;q=0.9,*/*;q=0.8</div></td></tr><tr><td style="font-weight:bold;vertical-align:top;">http_accept_encoding</td><td style="vertical-align:top;">:</td><td><div>gzip, deflate, br</div></td></tr><tr><td style="font-weight:bold;vertical-align:top;">http_accept_language</td><td style="vertical-align:top;">:</td><td><div>ru-RU,ru;q=0.8,en-US;q=0.5,en;q=0.3</div></td></tr><tr><td style="font-weight:bold;vertical-align:top;">http_cache_control</td><td style="vertical-align:top;">:</td><td><div>max-age=0</div></td></tr><tr><td style="font-weight:bold;vertical-align:top;">http_connection</td><td style="vertical-align:top;">:</td><td><div>close</div></td></tr><tr><td style="font-weight:bold;vertical-align:top;">http_cookie</td><td style="vertical-align:top;">:</td><td><div>session_id_ji163=10.26.255.68-3ba502b4-094a-4e24-b5ac-5bf524ae907d; session_id_ji103=10.26.255.68-088d6116-a165-4a18-ab2d-f8b1bc24b2a5; session_id_ji105=10.26.255.68-89105eb5-c4e9-4576-9ae8-221ddd42431a; TawkConnectionTime=0; __tawkuuid=e::sun.minfindnr.ru::LWstX6JswHXYRzTHI4yIvDkrDPYgiP5nB85iBOWu6St3iAqQF/8QQR+Nxjappr0P::2; session_id_admin=10.26.255.68-8b94d021-32c2-4020-a7cf-6e4e4a9fc22c</div></td></tr><tr><td style="font-weight:bold;vertical-align:top;">http_host</td><td style="vertical-align:top;">:</td><td><div>sun.minfindnr.ru</div></td></tr><tr><td style="font-weight:bold;vertical-align:top;">http_referer</td><td style="vertical-align:top;">:</td><td><div>https://sun.minfindnr.ru/ji105/default/index_3</div></td></tr><tr><td style="font-weight:bold;vertical-align:top;">http_upgrade_insecure_requests</td><td style="vertical-align:top;">:</td><td><div>1</div></td></tr><tr><td style="font-weight:bold;vertical-align:top;">http_user_agent</td><td style="vertical-align:top;">:</td><td><div>Mozilla/5.0 (Windows NT 6.1; rv:67.0) Gecko/20100101 Firefox/67.0</div></td></tr><tr><td style="font-weight:bold;vertical-align:top;">http_x_forwarded_by</td><td style="vertical-align:top;">:</td><td><div>92.242.125.188:443</div></td></tr><tr><td style="font-weight:bold;vertical-align:top;">http_x_forwarded_for</td><td style="vertical-align:top;">:</td><td><div>10.26.255.68</div></td></tr><tr><td style="font-weight:bold;vertical-align:top;">http_x_forwarded_proto</td><td style="vertical-align:top;">:</td><td><div>https</div></td></tr><tr><td style="font-weight:bold;vertical-align:top;">http_x_forwarded_ssl</td><td style="vertical-align:top;">:</td><td><div>on</div></td></tr><tr><td style="font-weight:bold;vertical-align:top;">http_x_real_ip</td><td style="vertical-align:top;">:</td><td><div>10.26.255.68</div></td></tr><tr><td style="font-weight:bold;vertical-align:top;">is_jython</td><td style="vertical-align:top;">:</td><td><div>False</div></td></tr><tr><td style="font-weight:bold;vertical-align:top;">is_py2</td><td style="vertical-align:top;">:</td><td><div>True</div></td></tr><tr><td style="font-weight:bold;vertical-align:top;">is_pypy</td><td style="vertical-align:top;">:</td><td><div>False</div></td></tr><tr><td style="font-weight:bold;vertical-align:top;">is_source</td><td style="vertical-align:top;">:</td><td><div>True</div></td></tr><tr><td style="font-weight:bold;vertical-align:top;">local_hosts</td><td style="vertical-align:top;">:</td><td><div><table><tr><td><div>sun.minfindnr.ru</div></td></tr><tr><td><div>::1</div></td></tr><tr><td><div>92.242.125.188</div></td></tr><tr><td><div>::ffff:127.0.0.1</div></td></tr><tr><td><div>127.0.0.1</div></td></tr></table></div></td></tr><tr><td style="font-weight:bold;vertical-align:top;">path_info</td><td style="vertical-align:top;">:</td><td><div>/ji105/default/index</div></td></tr><tr><td style="font-weight:bold;vertical-align:top;">query_string</td><td style="vertical-align:top;">:</td><td><div></div></td></tr><tr><td style="font-weight:bold;vertical-align:top;">raw_uri</td><td style="vertical-align:top;">:</td><td><div>/ji105/default/index</div></td></tr><tr><td style="font-weight:bold;vertical-align:top;">remote_addr</td><td style="vertical-align:top;">:</td><td><div></div></td></tr><tr><td style="font-weight:bold;vertical-align:top;">request_method</td><td style="vertical-align:top;">:</td><td><div>GET</div></td></tr><tr><td style="font-weight:bold;vertical-align:top;">request_uri</td><td style="vertical-align:top;">:</td><td><div>/ji105/default/index</div></td></tr><tr><td style="font-weight:bold;vertical-align:top;">script_name</td><td style="vertical-align:top;">:</td><td><div></div></td></tr><tr><td style="font-weight:bold;vertical-align:top;">server_name</td><td style="vertical-align:top;">:</td><td><div>sun.minfindnr.ru</div></td></tr><tr><td style="font-weight:bold;vertical-align:top;">server_port</td><td style="vertical-align:top;">:</td><td><div>443</div></td></tr><tr><td style="font-weight:bold;vertical-align:top;">server_protocol</td><td style="vertical-align:top;">:</td><td><div>HTTP/1.0</div></td></tr><tr><td style="font-weight:bold;vertical-align:top;">server_software</td><td style="vertical-align:top;">:</td><td><div>gunicorn/19.1.0</div></td></tr><tr><td style="font-weight:bold;vertical-align:top;">web2py_path</td><td style="vertical-align:top;">:</td><td><div>/home/w2p/web2py</div></td></tr><tr><td style="font-weight:bold;vertical-align:top;">web2py_version</td><td style="vertical-align:top;">:</td><td><div>2.15.4-stable+timestamp.2017.09.02.04.02.22</div></td></tr><tr><td style="font-weight:bold;vertical-align:top;">wsgi.errors</td><td style="vertical-align:top;">:</td><td><div>&lt;gunicorn.http.wsgi.WSGIErrorsWraper object at 0x7fe2ccebadd0&gt;</div></td></tr><tr><td style="font-weight:bold;vertical-align:top;">wsgi.file_wrapper</td><td style="vertical-align:top;">:</td><td><div>&lt;class &#x27;gunicorn.http.wsgi.FileWrapper&#x27;&gt;</div></td></tr><tr><td style="font-weight:bold;vertical-align:top;">wsgi.input</td><td style="vertical-align:top;">:</td><td><div>&lt;gunicorn.http.body.Body object at 0x7fe2ccebae10&gt;</div></td></tr><tr><td style="font-weight:bold;vertical-align:top;">wsgi.multiprocess</td><td style="vertical-align:top;">:</td><td><div>True</div></td></tr><tr><td style="font-weight:bold;vertical-align:top;">wsgi.multithread</td><td style="vertical-align:top;">:</td><td><div>False</div></td></tr><tr><td style="font-weight:bold;vertical-align:top;">wsgi.run_once</td><td style="vertical-align:top;">:</td><td><div>False</div></td></tr><tr><td style="font-weight:bold;vertical-align:top;">wsgi.url_scheme</td><td style="vertical-align:top;">:</td><td><div>https</div></td></tr><tr><td style="font-weight:bold;vertical-align:top;">wsgi.version</td><td style="vertical-align:top;">:</td><td><div><table><tr><td><div>1</div></td></tr><tr><td><div>0</div></td></tr></table></div></td></tr><tr><td style="font-weight:bold;vertical-align:top;">wsgi_errors</td><td style="vertical-align:top;">:</td><td><div>&lt;gunicorn.http.wsgi.WSGIErrorsWraper object at 0x7fe2ccebadd0&gt;</div></td></tr><tr><td style="font-weight:bold;vertical-align:top;">wsgi_file_wrapper</td><td style="vertical-align:top;">:</td><td><div>&lt;class &#x27;gunicorn.http.wsgi.FileWrapper&#x27;&gt;</div></td></tr><tr><td style="font-weight:bold;vertical-align:top;">wsgi_input</td><td style="vertical-align:top;">:</td><td><div>&lt;gunicorn.http.body.Body object at 0x7fe2ccebae10&gt;</div></td></tr><tr><td style="font-weight:bold;vertical-align:top;">wsgi_multiprocess</td><td style="vertical-align:top;">:</td><td><div>True</div></td></tr><tr><td style="font-weight:bold;vertical-align:top;">wsgi_multithread</td><td style="vertical-align:top;">:</td><td><div>False</div></td></tr><tr><td style="font-weight:bold;vertical-align:top;">wsgi_run_once</td><td style="vertical-align:top;">:</td><td><div>False</div></td></tr><tr><td style="font-weight:bold;vertical-align:top;">wsgi_url_scheme</td><td style="vertical-align:top;">:</td><td><div>https</div></td></tr><tr><td style="font-weight:bold;vertical-align:top;">wsgi_version</td><td style="vertical-align:top;">:</td><td><div><table><tr><td><div>1</div></td></tr><tr><td><div>0</div></td></tr></table></div></td></tr></table></div></td></tr><tr><td style="font-weight:bold;vertical-align:top;">extension</td><td style="vertical-align:top;">:</td><td><div>html</div></td></tr><tr><td style="font-weight:bold;vertical-align:top;">folder</td><td style="vertical-align:top;">:</td><td><div>/home/w2p/web2py/applications/ji105/</div></td></tr><tr><td style="font-weight:bold;vertical-align:top;">function</td><td style="vertical-align:top;">:</td><td><div>index</div></td></tr><tr><td style="font-weight:bold;vertical-align:top;">global_settings</td><td style="vertical-align:top;">:</td><td><div><table><tr><td style="font-weight:bold;vertical-align:top;">app_folders</td><td style="vertical-align:top;">:</td><td><div>set([&#x27;/home/w2p/web2py/applications/ji103/&#x27;, &#x27;/home/w2p/web2py/applications/ji142/&#x27;, &#x27;/home/w2p/web2py/applications/ji101/&#x27;, &#x27;/home/w2p/web2py/applications/ji178/&#x27;, &#x27;/home/w2p/web2py/applications/ji105/&#x27;, &#x27;/home/w2p/web2py/applications/dmlic/&#x27;, &#x27;/home/w2p/web2py/applications/welcome/&#x27;, &#x27;/home/w2p/web2py/applications/admin/&#x27;, &#x27;/home/w2p/web2py/applications/aji175/&#x27;, &#x27;/home/w2p/web2py/applications/ji174/&#x27;, &#x27;/home/w2p/web2py/applications/newlic/&#x27;, &#x27;/home/w2p/web2py/applications/aji163/&#x27;, &#x27;/home/w2p/web2py/applications/ji108/&#x27;, &#x27;/home/w2p/web2py/applications/ji197/&#x27;, &#x27;/home/w2p/web2py/applications/ji179/&#x27;, &#x27;/home/w2p/web2py/applications/lic/&#x27;, &#x27;/home/w2p/web2py/applications/aji103/&#x27;, &#x27;/home/w2p/web2py/applications/ji145/&#x27;, &#x27;/home/w2p/web2py/applications/ji173/&#x27;, &#x27;/home/w2p/web2py/applications/ji104/&#x27;, &#x27;/home/w2p/web2py/applications/ji100/&#x27;, &#x27;/home/w2p/web2py/applications/ji163/&#x27;, &#x27;/home/w2p/web2py/applications/ji180/&#x27;, &#x27;/home/w2p/web2py/applications/ji175/&#x27;, &#x27;/home/w2p/web2py/applications/gae/&#x27;, &#x27;/home/w2p/web2py/applications/ji190/&#x27;, &#x27;/home/w2p/web2py/applications/ji177/&#x27;, &#x27;/home/w2p/web2py/applications/ji192/&#x27;, &#x27;/home/w2p/web2py/applications/aji105/&#x27;, &#x27;/home/w2p/web2py/applications/ji196/&#x27;])</div></td></tr><tr><td style="font-weight:bold;vertical-align:top;">applications_parent</td><td style="vertical-align:top;">:</td><td><div>/home/w2p/web2py</div></td></tr><tr><td style="font-weight:bold;vertical-align:top;">db_sessions</td><td style="vertical-align:top;">:</td><td><div>set([])</div></td></tr><tr><td style="font-weight:bold;vertical-align:top;">debugging</td><td style="vertical-align:top;">:</td><td><div>False</div></td></tr><tr><td style="font-weight:bold;vertical-align:top;">gluon_parent</td><td style="vertical-align:top;">:</td><td><div>/home/w2p/web2py</div></td></tr><tr><td style="font-weight:bold;vertical-align:top;">is_jython</td><td style="vertical-align:top;">:</td><td><div>False</div></td></tr><tr><td style="font-weight:bold;vertical-align:top;">is_py2</td><td style="vertical-align:top;">:</td><td><div>True</div></td></tr><tr><td style="font-weight:bold;vertical-align:top;">is_pypy</td><td style="vertical-align:top;">:</td><td><div>False</div></td></tr><tr><td style="font-weight:bold;vertical-align:top;">is_source</td><td style="vertical-align:top;">:</td><td><div>True</div></td></tr><tr><td style="font-weight:bold;vertical-align:top;">local_hosts</td><td style="vertical-align:top;">:</td><td><div><table><tr><td><div>sun.minfindnr.ru</div></td></tr><tr><td><div>::1</div></td></tr><tr><td><div>92.242.125.188</div></td></tr><tr><td><div>::ffff:127.0.0.1</div></td></tr><tr><td><div>127.0.0.1</div></td></tr></table></div></td></tr><tr><td style="font-weight:bold;vertical-align:top;">web2py_version</td><td style="vertical-align:top;">:</td><td><div>2.15.4-stable+timestamp.2017.09.02.04.02.22</div></td></tr></table></div></td></tr><tr><td style="font-weight:bold;vertical-align:top;">is_https</td><td style="vertical-align:top;">:</td><td><div>True</div></td></tr><tr><td style="font-weight:bold;vertical-align:top;">is_local</td><td style="vertical-align:top;">:</td><td><div>False</div></td></tr><tr><td style="font-weight:bold;vertical-align:top;">is_restful</td><td style="vertical-align:top;">:</td><td><div>False</div></td></tr><tr><td style="font-weight:bold;vertical-align:top;">is_scheduler</td><td style="vertical-align:top;">:</td><td><div>False</div></td></tr><tr><td style="font-weight:bold;vertical-align:top;">is_shell</td><td style="vertical-align:top;">:</td><td><div>False</div></td></tr><tr><td style="font-weight:bold;vertical-align:top;">now</td><td style="vertical-align:top;">:</td><td><div>datetime.datetime(2019, 5, 22, 11, 51, 3, 431546)</div></td></tr><tr><td style="font-weight:bold;vertical-align:top;">raw_args</td><td style="vertical-align:top;">:</td><td><div></div></td></tr><tr><td style="font-weight:bold;vertical-align:top;">raw_extension</td><td style="vertical-align:top;">:</td><td><div>None</div></td></tr><tr><td style="font-weight:bold;vertical-align:top;">url</td><td style="vertical-align:top;">:</td><td><div>/ji105/default/index</div></td></tr><tr><td style="font-weight:bold;vertical-align:top;">utcnow</td><td style="vertical-align:top;">:</td><td><div>datetime.datetime(2019, 5, 22, 8, 51, 3, 431564)</div></td></tr><tr><td style="font-weight:bold;vertical-align:top;">wsgi</td><td style="vertical-align:top;">:</td><td><div>&lt;gluon.main.LazyWSGI object at 0x7fe2cceba510&gt;</div></td></tr></table></div>'
tRp60
sS'frames'
p61
(lp62
(dp63
S'file'
p64
S'/home/w2p/web2py/gluon/restricted.py'
p65
sS'dump'
p66
(dp67
S'environment'
p68
S"{'A': <class 'gluon.html.A'>, 'ANY_OF': <class 'gluon.validators.ANY_OF'>, 'ASSIGNJS': <function ASSIGNJS>, 'AppConfig': <function AppConfig>, 'Auth': <class 'gluon.tools.Auth'>, 'B': <class 'gluon.html.B'>, 'BEAUTIFY': <class 'gluon.html.BEAUTIFY'>, 'BODY': <class 'gluon.html.BODY'>, 'BR': <class 'gluon.html.BR'>, 'BUTTON': <class 'gluon.html.BUTTON'>, ...}"
p69
sS'ccode'
p70
S'<code object <module> at 0x7fe2cf067030, file "/...ications/ji105/views/default/index.html", line 1>'
p71
ssS'lnum'
p72
I219
sS'lines'
p73
(dp74
I214
S'    if environment is None:'
p75
sI215
S'        environment = {}'
p76
sI216
S"    environment['__file__'] = layer"
p77
sI217
S"    environment['__name__'] = '__restricted__'"
p78
sI218
S'    try:'
p79
sI219
S'        exec(ccode, environment)'
p80
sI220
S'    except HTTP:'
p81
sI221
S'        raise'
p82
sI222
S'    except RestrictedError:'
p83
sI223
S'        # do not encapsulate (obfuscate) the original RestrictedError'
p84
ssS'call'
p85
S'(ccode=<code object <module> at 0x7fe2cf067030, file "/...ications/ji105/views/default/index.html", line 1>, environment={\'A\': <class \'gluon.html.A\'>, \'ANY_OF\': <class \'gluon.validators.ANY_OF\'>, \'ASSIGNJS\': <function ASSIGNJS>, \'AppConfig\': <function AppConfig>, \'Auth\': <class \'gluon.tools.Auth\'>, \'B\': <class \'gluon.html.B\'>, \'BEAUTIFY\': <class \'gluon.html.BEAUTIFY\'>, \'BODY\': <class \'gluon.html.BODY\'>, \'BR\': <class \'gluon.html.BR\'>, \'BUTTON\': <class \'gluon.html.BUTTON\'>, ...}, layer=\'/home/w2p/web2py/applications/ji105/views/default/index.html\', scode=\'response.write(\\\'<!doctype html>\\\\n<html class="no...(\\\'"></script>\\\\n</body>\\\\n\\\\n</html>\\\', escape=False)\')'
p86
sS'func'
p87
S'restricted'
p88
sa(dp89
g64
S'/home/w2p/web2py/applications/ji105/views/default/index.html'
p90
sg66
(dp91
sg72
I580
sg73
(dp92
I576
S'response.write(DICT["pa10343"])'
p93
sI577
S'response.write(\'</p>\\n                                        </div>\\n                                    </div>\\n                                </a>\\n                            </div>\\n                        </div>\\n                    </div>\\n                </div>\\n                <div class="col-lg-4 col-md-6 col-sm-6 col-xs-12">\\n                    <div class="recent-items-wp notika-shadow sm-res-mg-t-30">\\n                        <div class="rc-it-ltd">\\n                            <div class="recent-items-ctn">\\n                                <div class="recent-items-title">\\n                                    <h2>\', escape=False)'
p94
sI578
S'response.write(DICT["hh10344"])'
p95
sI579
S'response.write(\'</h2>\\n                                </div>\\n                            </div>\\n                            <div class="recent-items-inn">\\n                                <table class="table table-inner table-vmiddle">\\n                                    \\n<thead>\\n<tr>\\n    <th>ID</th>\\n    <th>\\xd0\\xb7\\xd0\\xb7\\xd0\\xb7\\xd0\\xb7\\xd0\\xb7\\xd0\\xb7</th>\\n    <th>Name</th>\\n    <th>Price</th>\\n</tr>\\n</thead>\\n\\n<tbody>\\n\', escape=False)'
p96
sI580
S'query4= db.indextable0.id > 0'
p97
sI581
S"response.write('\\n', escape=False)"
p98
sI582
S'results4= db(query4).select()'
p99
sI583
S"response.write('\\n', escape=False)"
p100
sI584
S'if not results4 is None:'
p101
sI585
S"    response.write('\\n', escape=False)"
p102
sI586
S'    for row in results4:'
p103
sI587
S"        response.write('\\n<tr>\\n    <td>', escape=False)"
p104
sI588
S'        response.write(row.f0)'
p105
sI589
S"        response.write('</td>\\n    <td>', escape=False)"
p106
sI590
S'        response.write(row.f1)'
p107
sI571
S'response.write(\'" alt="" />\\n                                        </div>\\n                                        <div class="recent-post-it-ctn">\\n                                            <h2>\', escape=False)'
p108
sI572
S'response.write(DICT["hh10341"])'
p109
sI573
S"response.write('</h2>\\n                                            <p>', escape=False)"
p110
sI574
S'response.write(DICT["pa10342"])'
p111
sI575
S'response.write(\'</p>\\n                                        </div>\\n                                    </div>\\n                                </a>\\n                            </div>\\n                            <div class="recent-post-signle">\\n                                <a href="#">\\n                                    <div class="recent-post-flex rc-ps-vw">\\n                                        <div class="recent-post-line rct-pt-mg">\\n                                            <p>\', escape=False)'
p112
ssg85
S'()'
p113
sg87
S'<module>'
p114
sa(dp115
g64
S'/home/w2p/.conda/envs/lic/lib/python2.7/site-packages/pydal/base.py'
p116
sg66
(dp117
S'global BasicStorage'
p118
S"<class 'pydal.helpers.classes.BasicStorage'>"
p119
sS'self'
p120
S'<DAL uri="sqlite://storage.sqlite">'
p121
sS'BasicStorage.__getattribute__'
p122
S"<slot wrapper '__getattribute__' of 'object' objects>"
p123
sS'key'
p124
S"'indextable0'"
p125
ssg72
I669
sg73
(dp126
I672
S"        if key[:1] != '_' and key in self:"
p127
sI673
S'            raise SyntaxError('
p128
sI664
S'    def __getattr__(self, key):'
p129
sI665
S"        if object.__getattribute__(self, '_lazy_tables') and \\"
p130
sI666
S"                key in object.__getattribute__(self, '_LAZY_TABLES'):"
p131
sI667
S'            tablename, fields, args = self._LAZY_TABLES.pop(key)'
p132
sI668
S'            return self.lazy_define_table(tablename, *fields, **args)'
p133
sI669
S'        return BasicStorage.__getattribute__(self, key)'
p134
sI670
S''
sI671
S'    def __setattr__(self, key, value):'
p135
ssg85
S'(self=<DAL uri="sqlite://storage.sqlite">, key=\'indextable0\')'
p136
sg87
S'__getattr__'
p137
sasS'pyver'
p138
S'Python 2.7.13: /home/w2p/.conda/envs/lic/bin/python (prefix: /home/w2p/.conda/envs/lic)'
p139
sS'session'
p140
g59
(S's\x1a\x00\x00\x00<div><table></table></div>'
tRp141
sS'etype'
p142
S"<type 'exceptions.AttributeError'>"
p143
sS'date'
p144
S'Wed May 22 11:51:07 2019'
p145
sS'response'
p146
g59
(S's\xdb"\x00\x00<div><table><tr><td style="font-weight:bold;vertical-align:top;">body</td><td style="vertical-align:top;">:</td><td><div>&lt;cStringIO.StringO object at 0x7fe2ccdbd730&gt;</div></td></tr><tr><td style="font-weight:bold;vertical-align:top;">cookies</td><td style="vertical-align:top;">:</td><td><div><table><tr><td style="font-weight:bold;vertical-align:top;">session_id_ji105</td><td style="vertical-align:top;">:</td><td><div>10.26.255.68-05a1b17e-4448-4c91-b2df-57e39a80ec65<table><tr><td style="font-weight:bold;vertical-align:top;">comment</td><td style="vertical-align:top;">:</td><td><div></div></td></tr><tr><td style="font-weight:bold;vertical-align:top;">domain</td><td style="vertical-align:top;">:</td><td><div></div></td></tr><tr><td style="font-weight:bold;vertical-align:top;">expires</td><td style="vertical-align:top;">:</td><td><div></div></td></tr><tr><td style="font-weight:bold;vertical-align:top;">httponly</td><td style="vertical-align:top;">:</td><td><div></div></td></tr><tr><td style="font-weight:bold;vertical-align:top;">max-age</td><td style="vertical-align:top;">:</td><td><div></div></td></tr><tr><td style="font-weight:bold;vertical-align:top;">path</td><td style="vertical-align:top;">:</td><td><div>/</div></td></tr><tr><td style="font-weight:bold;vertical-align:top;">secure</td><td style="vertical-align:top;">:</td><td><div></div></td></tr><tr><td style="font-weight:bold;vertical-align:top;">version</td><td style="vertical-align:top;">:</td><td><div></div></td></tr></table></div></td></tr></table></div></td></tr><tr><td style="font-weight:bold;vertical-align:top;">delimiters</td><td style="vertical-align:top;">:</td><td><div><table><tr><td><div>{{</div></td></tr><tr><td><div>}}</div></td></tr></table></div></td></tr><tr><td style="font-weight:bold;vertical-align:top;">files</td><td style="vertical-align:top;">:</td><td><div><table></table></div></td></tr><tr><td style="font-weight:bold;vertical-align:top;">flash</td><td style="vertical-align:top;">:</td><td><div></div></td></tr><tr><td style="font-weight:bold;vertical-align:top;">form_label_separator</td><td style="vertical-align:top;">:</td><td><div></div></td></tr><tr><td style="font-weight:bold;vertical-align:top;">formstyle</td><td style="vertical-align:top;">:</td><td><div>bootstrap3_inline</div></td></tr><tr><td style="font-weight:bold;vertical-align:top;">generic_patterns</td><td style="vertical-align:top;">:</td><td><div><table></table></div></td></tr><tr><td style="font-weight:bold;vertical-align:top;">headers</td><td style="vertical-align:top;">:</td><td><div><table><tr><td style="font-weight:bold;vertical-align:top;">X-Powered-By</td><td style="vertical-align:top;">:</td><td><div>xping</div></td></tr></table></div></td></tr><tr><td style="font-weight:bold;vertical-align:top;">menu</td><td style="vertical-align:top;">:</td><td><div><table><tr><td><div><table><tr><td><div>Myima</div></td></tr><tr><td><div>False</div></td></tr><tr><td><div>/ji105/myima/index</div></td></tr><tr><td><div><table></table></div></td></tr></table></div></td></tr><tr><td><div><table><tr><td><div>Myadd</div></td></tr><tr><td><div>False</div></td></tr><tr><td><div>/ji105/myadd/index</div></td></tr><tr><td><div><table></table></div></td></tr></table></div></td></tr><tr><td><div><table><tr><td><div>Home</div></td></tr><tr><td><div>False</div></td></tr><tr><td><div>/ji105/default/index</div></td></tr><tr><td><div><table></table></div></td></tr></table></div></td></tr><tr><td><div><table><tr><td><div>My Sites</div></td></tr><tr><td><div>False</div></td></tr><tr><td><div>/admin/default/site</div></td></tr></table></div></td></tr><tr><td><div><table><tr><td><div>This App</div></td></tr><tr><td><div>False</div></td></tr><tr><td><div>#</div></td></tr><tr><td><div><table><tr><td><div><table><tr><td><div>Design</div></td></tr><tr><td><div>False</div></td></tr><tr><td><div>/admin/default/design/ji105</div></td></tr></table></div></td></tr><tr><td><div><table><tr><td><div>Myadd ctrl</div></td></tr><tr><td><div>False</div></td></tr><tr><td><div>/admin/default/edit/ji105/controllers/myadd.py</div></td></tr></table></div></td></tr><tr><td><div><table><tr><td><div>Myima ctrl</div></td></tr><tr><td><div>False</div></td></tr><tr><td><div>/admin/default/edit/ji105/controllers/myima.py</div></td></tr></table></div></td></tr><tr><td><div><table><tr><td><div>default ctrl</div></td></tr><tr><td><div>False</div></td></tr><tr><td><div>/admin/default/edit/ji105/controllers/default.py</div></td></tr></table></div></td></tr><tr><td><div><table><tr><td><div>DB Model</div></td></tr><tr><td><div>False</div></td></tr><tr><td><div>/admin/default/edit/ji105/models/db.py</div></td></tr></table></div></td></tr><tr><td><div><table><tr><td><div>Database</div></td></tr><tr><td><div>False</div></td></tr><tr><td><div>/ji105/appadmin/index</div></td></tr></table></div></td></tr><tr><td><div><table><tr><td><div>Errors</div></td></tr><tr><td><div>False</div></td></tr><tr><td><div>/admin/default/errors/ji105</div></td></tr></table></div></td></tr><tr><td><div><table><tr><td><div>About</div></td></tr><tr><td><div>False</div></td></tr><tr><td><div>/admin/default/about/ji105</div></td></tr></table></div></td></tr></table></div></td></tr></table></div></td></tr><tr><td><div><table><tr><td><div>auth</div></td></tr><tr><td><div>False</div></td></tr><tr><td><div>/ji105/default/index</div></td></tr><tr><td><div><table><tr><td><div><table><tr><td><div>events</div></td></tr><tr><td><div>False</div></td></tr><tr><td><div>/ji105/myadd/auth_eventctrl</div></td></tr></table></div></td></tr><tr><td><div><table><tr><td><div>users</div></td></tr><tr><td><div>False</div></td></tr><tr><td><div>/ji105/myadd/auth_userctrl</div></td></tr></table></div></td></tr><tr><td><div><table><tr><td><div>groups</div></td></tr><tr><td><div>False</div></td></tr><tr><td><div>/ji105/myadd/auth_groupctrl</div></td></tr></table></div></td></tr><tr><td><div><table><tr><td><div>member</div></td></tr><tr><td><div>False</div></td></tr><tr><td><div>/ji105/myadd/auth_membershipctrl</div></td></tr></table></div></td></tr></table></div></td></tr></table></div></td></tr></table></div></td></tr><tr><td style="font-weight:bold;vertical-align:top;">meta</td><td style="vertical-align:top;">:</td><td><div><table></table></div></td></tr><tr><td style="font-weight:bold;vertical-align:top;">models_to_run</td><td style="vertical-align:top;">:</td><td><div><table><tr><td><div>^\\w+\\.py$</div></td></tr><tr><td><div>^default/\\w+\\.py$</div></td></tr><tr><td><div>^default/index/\\w+\\.py$</div></td></tr></table></div></td></tr><tr><td style="font-weight:bold;vertical-align:top;">postprocessing</td><td style="vertical-align:top;">:</td><td><div><table></table></div></td></tr><tr><td style="font-weight:bold;vertical-align:top;">session_client</td><td style="vertical-align:top;">:</td><td><div>10.26.255.68</div></td></tr><tr><td style="font-weight:bold;vertical-align:top;">session_cookie_compression_level</td><td style="vertical-align:top;">:</td><td><div>None</div></td></tr><tr><td style="font-weight:bold;vertical-align:top;">session_cookie_expires</td><td style="vertical-align:top;">:</td><td><div>None</div></td></tr><tr><td style="font-weight:bold;vertical-align:top;">session_data_name</td><td style="vertical-align:top;">:</td><td><div>session_data_ji105</div></td></tr><tr><td style="font-weight:bold;vertical-align:top;">session_file</td><td style="vertical-align:top;">:</td><td><div>None</div></td></tr><tr><td style="font-weight:bold;vertical-align:top;">session_filename</td><td style="vertical-align:top;">:</td><td><div>/home/w2p/web2py/applications/ji105/sessions/10.26.255.68-05a1b17e-4448-4c91-b2df-57e39a80ec65</div></td></tr><tr><td style="font-weight:bold;vertical-align:top;">session_hash</td><td style="vertical-align:top;">:</td><td><div>c0762cbf4baf7f9af97c051e7fcb8083</div></td></tr><tr><td style="font-weight:bold;vertical-align:top;">session_id</td><td style="vertical-align:top;">:</td><td><div>10.26.255.68-05a1b17e-4448-4c91-b2df-57e39a80ec65</div></td></tr><tr><td style="font-weight:bold;vertical-align:top;">session_id_name</td><td style="vertical-align:top;">:</td><td><div>session_id_ji105</div></td></tr><tr><td style="font-weight:bold;vertical-align:top;">session_masterapp</td><td style="vertical-align:top;">:</td><td><div>ji105</div></td></tr><tr><td style="font-weight:bold;vertical-align:top;">session_new</td><td style="vertical-align:top;">:</td><td><div>True</div></td></tr><tr><td style="font-weight:bold;vertical-align:top;">session_storage_type</td><td style="vertical-align:top;">:</td><td><div>file</div></td></tr><tr><td style="font-weight:bold;vertical-align:top;">status</td><td style="vertical-align:top;">:</td><td><div>200</div></td></tr><tr><td style="font-weight:bold;vertical-align:top;">view</td><td style="vertical-align:top;">:</td><td><div>default/index.html</div></td></tr></table></div>'
tRp147
sS'locals'
p148
(dp149
S'self'
p150
S'<DAL uri="sqlite://storage.sqlite">'
p151
sS'key'
p152
S"'indextable0'"
p153
sssS'traceback'
p154
S'Traceback (most recent call last):\n  File "/home/w2p/web2py/gluon/restricted.py", line 219, in restricted\n    exec(ccode, environment)\n  File "/home/w2p/web2py/applications/ji105/views/default/index.html", line 580, in <module>\n  File "/home/w2p/.conda/envs/lic/lib/python2.7/site-packages/pydal/base.py", line 669, in __getattr__\n    return BasicStorage.__getattribute__(self, key)\nAttributeError: \'DAL\' object has no attribute \'indextable0\'\n'
p155
s.