(dp0
S'f0'
p1
(dp2
S'rname'
p3
S'"f0"'
p4
sS'sortable'
p5
I2
sS'raw_rname'
p6
g1
sS'notnull'
p7
I00
sS'length'
p8
I512
sS'sql'
p9
S'CHAR(512)'
p10
sS'unique'
p11
I00
sS'type'
p12
S'string'
p13
ssS'f1'
p14
(dp15
g3
S'"f1"'
p16
sg5
I3
sg6
g14
sg7
I00
sg8
I512
sg9
S'CHAR(512)'
p17
sg11
I00
sg12
g13
ssS'f2'
p18
(dp19
g3
S'"f2"'
p20
sg5
I4
sg6
g18
sg7
I00
sg8
I512
sg9
S'CHAR(512)'
p21
sg11
I00
sg12
g13
ssS'f3'
p22
(dp23
g3
S'"f3"'
p24
sg5
I5
sg6
g22
sg7
I00
sg8
I512
sg9
S'CHAR(512)'
p25
sg11
I00
sg12
g13
ssS'f4'
p26
(dp27
g3
S'"f4"'
p28
sg5
I6
sg6
g26
sg7
I00
sg8
I512
sg9
S'CHAR(1)'
p29
sg11
I00
sg12
S'boolean'
p30
ssS'f5'
p31
(dp32
g3
S'"f5"'
p33
sg5
I7
sg6
g31
sg7
I00
sg8
I512
sg9
S'CHAR(512)'
p34
sg11
I00
sg12
g13
ssS'f6'
p35
(dp36
g3
S'"f6"'
p37
sg5
I8
sg6
g35
sg7
I00
sg8
I512
sg9
S'CHAR(512)'
p38
sg11
I00
sg12
g13
ssS'f7'
p39
(dp40
g3
S'"f7"'
p41
sg5
I9
sg6
g39
sg7
I00
sg8
I512
sg9
S'CHAR(512)'
p42
sg11
I00
sg12
g13
ssS'f8'
p43
(dp44
g3
S'"f8"'
p45
sg5
I10
sg6
g43
sg7
I00
sg8
I512
sg9
S'CHAR(512)'
p46
sg11
I00
sg12
g13
ssS'f9'
p47
(dp48
g3
S'"f9"'
p49
sg5
I11
sg6
g47
sg7
I00
sg8
I512
sg9
S'CHAR(512)'
p50
sg11
I00
sg12
g13
ssS'id'
p51
(dp52
g3
S'"id"'
p53
sg5
I1
sg6
g51
sg7
I00
sg8
I512
sg9
S'INTEGER PRIMARY KEY AUTOINCREMENT'
p54
sg11
I00
sg12
g51
ssS'f41'
p55
(dp56
g3
S'"f41"'
p57
sg5
I43
sg6
g55
sg7
I00
sg8
I512
sg9
S'CHAR(512)'
p58
sg11
I00
sg12
g13
ssS'f40'
p59
(dp60
g3
S'"f40"'
p61
sg5
I42
sg6
g59
sg7
I00
sg8
I512
sg9
S'CHAR(512)'
p62
sg11
I00
sg12
g13
ssS'f43'
p63
(dp64
g3
S'"f43"'
p65
sg5
I45
sg6
g63
sg7
I00
sg8
I512
sg9
S'CHAR(512)'
p66
sg11
I00
sg12
g13
ssS'f42'
p67
(dp68
g3
S'"f42"'
p69
sg5
I44
sg6
g67
sg7
I00
sg8
I512
sg9
S'CHAR(512)'
p70
sg11
I00
sg12
g13
ssS'f45'
p71
(dp72
g3
S'"f45"'
p73
sg5
I47
sg6
g71
sg7
I00
sg8
I512
sg9
S'CHAR(512)'
p74
sg11
I00
sg12
g13
ssS'f44'
p75
(dp76
g3
S'"f44"'
p77
sg5
I46
sg6
g75
sg7
I00
sg8
I512
sg9
S'CHAR(512)'
p78
sg11
I00
sg12
g13
ssS'f47'
p79
(dp80
g3
S'"f47"'
p81
sg5
I49
sg6
g79
sg7
I00
sg8
I512
sg9
S'CHAR(512)'
p82
sg11
I00
sg12
g13
ssS'f46'
p83
(dp84
g3
S'"f46"'
p85
sg5
I48
sg6
g83
sg7
I00
sg8
I512
sg9
S'CHAR(512)'
p86
sg11
I00
sg12
g13
ssS'f49'
p87
(dp88
g3
S'"f49"'
p89
sg5
I51
sg6
g87
sg7
I00
sg8
I32768
sg9
S'TEXT'
p90
sg11
I00
sg12
S'text'
p91
ssS'f48'
p92
(dp93
g3
S'"f48"'
p94
sg5
I50
sg6
g92
sg7
I00
sg8
I512
sg9
S'CHAR(512)'
p95
sg11
I00
sg12
g13
ssS'f32'
p96
(dp97
g3
S'"f32"'
p98
sg5
I34
sg6
g96
sg7
I00
sg8
I512
sg9
S'CHAR(512)'
p99
sg11
I00
sg12
g13
ssS'f23'
p100
(dp101
g3
S'"f23"'
p102
sg5
I25
sg6
g100
sg7
I00
sg8
I512
sg9
S'CHAR(1)'
p103
sg11
I00
sg12
g30
ssS'f22'
p104
(dp105
g3
S'"f22"'
p106
sg5
I24
sg6
g104
sg7
I00
sg8
I512
sg9
S'CHAR(1)'
p107
sg11
I00
sg12
g30
ssS'f21'
p108
(dp109
g3
S'"f21"'
p110
sg5
I23
sg6
g108
sg7
I00
sg8
I512
sg9
S'CHAR(1)'
p111
sg11
I00
sg12
g30
ssS'f20'
p112
(dp113
g3
S'"f20"'
p114
sg5
I22
sg6
g112
sg7
I00
sg8
I512
sg9
S'CHAR(1)'
p115
sg11
I00
sg12
g30
ssS'f27'
p116
(dp117
g3
S'"f27"'
p118
sg5
I29
sg6
g116
sg7
I00
sg8
I512
sg9
S'CHAR(1)'
p119
sg11
I00
sg12
g30
ssS'f26'
p120
(dp121
g3
S'"f26"'
p122
sg5
I28
sg6
g120
sg7
I00
sg8
I512
sg9
S'CHAR(1)'
p123
sg11
I00
sg12
g30
ssS'f25'
p124
(dp125
g3
S'"f25"'
p126
sg5
I27
sg6
g124
sg7
I00
sg8
I512
sg9
S'CHAR(1)'
p127
sg11
I00
sg12
g30
ssS'f24'
p128
(dp129
g3
S'"f24"'
p130
sg5
I26
sg6
g128
sg7
I00
sg8
I512
sg9
S'CHAR(1)'
p131
sg11
I00
sg12
g30
ssS'f29'
p132
(dp133
g3
S'"f29"'
p134
sg5
I31
sg6
g132
sg7
I00
sg8
I512
sg9
S'CHAR(1)'
p135
sg11
I00
sg12
g30
ssS'f28'
p136
(dp137
g3
S'"f28"'
p138
sg5
I30
sg6
g136
sg7
I00
sg8
I512
sg9
S'CHAR(1)'
p139
sg11
I00
sg12
g30
ssS'f33'
p140
(dp141
g3
S'"f33"'
p142
sg5
I35
sg6
g140
sg7
I00
sg8
I512
sg9
S'CHAR(512)'
p143
sg11
I00
sg12
g13
ssS'f38'
p144
(dp145
g3
S'"f38"'
p146
sg5
I40
sg6
g144
sg7
I00
sg8
I512
sg9
S'CHAR(512)'
p147
sg11
I00
sg12
g13
ssS'f39'
p148
(dp149
g3
S'"f39"'
p150
sg5
I41
sg6
g148
sg7
I00
sg8
I512
sg9
S'CHAR(512)'
p151
sg11
I00
sg12
g13
ssS'f56'
p152
(dp153
g3
S'"f56"'
p154
sg5
I58
sg6
g152
sg7
I00
sg8
I512
sg9
S'CHAR(512)'
p155
sg11
I00
sg12
g13
ssS'f54'
p156
(dp157
g3
S'"f54"'
p158
sg5
I56
sg6
g156
sg7
I00
sg8
I512
sg9
S'CHAR(512)'
p159
sg11
I00
sg12
g13
ssS'f55'
p160
(dp161
g3
S'"f55"'
p162
sg5
I57
sg6
g160
sg7
I00
sg8
I512
sg9
S'CHAR(512)'
p163
sg11
I00
sg12
g13
ssS'f52'
p164
(dp165
g3
S'"f52"'
p166
sg5
I54
sg6
g164
sg7
I00
sg8
I512
sg9
S'CHAR(512)'
p167
sg11
I00
sg12
g13
ssS'f53'
p168
(dp169
g3
S'"f53"'
p170
sg5
I55
sg6
g168
sg7
I00
sg8
I512
sg9
S'CHAR(512)'
p171
sg11
I00
sg12
g13
ssS'f50'
p172
(dp173
g3
S'"f50"'
p174
sg5
I52
sg6
g172
sg7
I00
sg8
I32768
sg9
S'TEXT'
p175
sg11
I00
sg12
g91
ssS'f51'
p176
(dp177
g3
S'"f51"'
p178
sg5
I53
sg6
g176
sg7
I00
sg8
I32768
sg9
S'TEXT'
p179
sg11
I00
sg12
g91
ssS'f30'
p180
(dp181
g3
S'"f30"'
p182
sg5
I32
sg6
g180
sg7
I00
sg8
I512
sg9
S'CHAR(1)'
p183
sg11
I00
sg12
g30
ssS'f31'
p184
(dp185
g3
S'"f31"'
p186
sg5
I33
sg6
g184
sg7
I00
sg8
I512
sg9
S'CHAR(1)'
p187
sg11
I00
sg12
g30
ssS'f18'
p188
(dp189
g3
S'"f18"'
p190
sg5
I20
sg6
g188
sg7
I00
sg8
I512
sg9
S'CHAR(1)'
p191
sg11
I00
sg12
g30
ssS'f19'
p192
(dp193
g3
S'"f19"'
p194
sg5
I21
sg6
g192
sg7
I00
sg8
I512
sg9
S'CHAR(1)'
p195
sg11
I00
sg12
g30
ssS'f34'
p196
(dp197
g3
S'"f34"'
p198
sg5
I36
sg6
g196
sg7
I00
sg8
I512
sg9
S'CHAR(1)'
p199
sg11
I00
sg12
g30
ssS'f35'
p200
(dp201
g3
S'"f35"'
p202
sg5
I37
sg6
g200
sg7
I00
sg8
I512
sg9
S'CHAR(512)'
p203
sg11
I00
sg12
g13
ssS'f36'
p204
(dp205
g3
S'"f36"'
p206
sg5
I38
sg6
g204
sg7
I00
sg8
I512
sg9
S'CHAR(512)'
p207
sg11
I00
sg12
g13
ssS'f37'
p208
(dp209
g3
S'"f37"'
p210
sg5
I39
sg6
g208
sg7
I00
sg8
I512
sg9
S'CHAR(512)'
p211
sg11
I00
sg12
g13
ssS'f12'
p212
(dp213
g3
S'"f12"'
p214
sg5
I14
sg6
g212
sg7
I00
sg8
I512
sg9
S'CHAR(512)'
p215
sg11
I00
sg12
g13
ssS'f13'
p216
(dp217
g3
S'"f13"'
p218
sg5
I15
sg6
g216
sg7
I00
sg8
I512
sg9
S'CHAR(512)'
p219
sg11
I00
sg12
g13
ssS'f10'
p220
(dp221
g3
S'"f10"'
p222
sg5
I12
sg6
g220
sg7
I00
sg8
I512
sg9
S'CHAR(512)'
p223
sg11
I00
sg12
g13
ssS'f11'
p224
(dp225
g3
S'"f11"'
p226
sg5
I13
sg6
g224
sg7
I00
sg8
I512
sg9
S'CHAR(512)'
p227
sg11
I00
sg12
g13
ssS'f16'
p228
(dp229
g3
S'"f16"'
p230
sg5
I18
sg6
g228
sg7
I00
sg8
I512
sg9
S'CHAR(1)'
p231
sg11
I00
sg12
g30
ssS'f17'
p232
(dp233
g3
S'"f17"'
p234
sg5
I19
sg6
g232
sg7
I00
sg8
I512
sg9
S'CHAR(1)'
p235
sg11
I00
sg12
g30
ssS'f14'
p236
(dp237
g3
S'"f14"'
p238
sg5
I16
sg6
g236
sg7
I00
sg8
I512
sg9
S'CHAR(512)'
p239
sg11
I00
sg12
g13
ssS'f15'
p240
(dp241
g3
S'"f15"'
p242
sg5
I17
sg6
g240
sg7
I00
sg8
I512
sg9
S'CHAR(1)'
p243
sg11
I00
sg12
g30
ss.