(dp1
S'output'
p2
S"<type 'exceptions.AttributeError'> 'DAL' object has no attribute 'ddashboardform0'"
p3
sS'layer'
p4
S'/home/w2p/web2py/applications/ji163/controllers/default.py'
p5
sS'code'
p6
S'<code object <module> at 0x7fe2ce75e8b0, file "/home/w2p/web2py/applications/ji163/controllers/default.py", line 12>'
p7
sS'snapshot'
p8
(dp9
S'exception'
p10
(dp11
S'__getslice__'
p12
S"<method-wrapper '__getslice__' of exceptions.AttributeError object>"
p13
sS'__str__'
p14
S"<method-wrapper '__str__' of exceptions.AttributeError object>"
p15
sS'__reduce__'
p16
S'<built-in method __reduce__ of exceptions.AttributeError object>'
p17
sS'__dict__'
p18
S'{}'
p19
sS'message'
p20
S'"\'DAL\' object has no attribute \'ddashboardform0\'"'
p21
sS'__sizeof__'
p22
S'<built-in method __sizeof__ of exceptions.AttributeError object>'
p23
sS'__init__'
p24
S"<method-wrapper '__init__' of exceptions.AttributeError object>"
p25
sS'__setattr__'
p26
S"<method-wrapper '__setattr__' of exceptions.AttributeError object>"
p27
sS'__reduce_ex__'
p28
S'<built-in method __reduce_ex__ of exceptions.AttributeError object>'
p29
sS'__new__'
p30
S'<built-in method __new__ of type object>'
p31
sS'__format__'
p32
S'<built-in method __format__ of exceptions.AttributeError object>'
p33
sS'__class__'
p34
S"<type 'exceptions.AttributeError'>"
p35
sS'__doc__'
p36
S"'Attribute not found.'"
p37
sS'__getitem__'
p38
S"<method-wrapper '__getitem__' of exceptions.AttributeError object>"
p39
sS'__setstate__'
p40
S'<built-in method __setstate__ of exceptions.AttributeError object>'
p41
sS'__getattribute__'
p42
S"<method-wrapper '__getattribute__' of exceptions.AttributeError object>"
p43
sS'args'
p44
S'("\'DAL\' object has no attribute \'ddashboardform0\'",)'
p45
sS'__subclasshook__'
p46
S'<built-in method __subclasshook__ of type object>'
p47
sS'__unicode__'
p48
S'<built-in method __unicode__ of exceptions.AttributeError object>'
p49
sS'__delattr__'
p50
S"<method-wrapper '__delattr__' of exceptions.AttributeError object>"
p51
sS'__repr__'
p52
S"<method-wrapper '__repr__' of exceptions.AttributeError object>"
p53
sS'__hash__'
p54
S"<method-wrapper '__hash__' of exceptions.AttributeError object>"
p55
ssS'evalue'
p56
S"'DAL' object has no attribute 'ddashboardform0'"
p57
sS'request'
p58
cgluon.html
XML_unpickle
p59
(S's\xb8~\x00\x00<div><table><tr><td style="font-weight:bold;vertical-align:top;">ajax</td><td style="vertical-align:top;">:</td><td><div>False</div></td></tr><tr><td style="font-weight:bold;vertical-align:top;">application</td><td style="vertical-align:top;">:</td><td><div>ji163</div></td></tr><tr><td style="font-weight:bold;vertical-align:top;">args</td><td style="vertical-align:top;">:</td><td><div><table></table></div></td></tr><tr><td style="font-weight:bold;vertical-align:top;">cid</td><td style="vertical-align:top;">:</td><td><div>None</div></td></tr><tr><td style="font-weight:bold;vertical-align:top;">client</td><td style="vertical-align:top;">:</td><td><div>10.26.255.68</div></td></tr><tr><td style="font-weight:bold;vertical-align:top;">controller</td><td style="vertical-align:top;">:</td><td><div>default</div></td></tr><tr><td style="font-weight:bold;vertical-align:top;">cookies</td><td style="vertical-align:top;">:</td><td><div><table><tr><td style="font-weight:bold;vertical-align:top;">TawkConnectionTime</td><td style="vertical-align:top;">:</td><td><div>0<table><tr><td style="font-weight:bold;vertical-align:top;">comment</td><td style="vertical-align:top;">:</td><td><div></div></td></tr><tr><td style="font-weight:bold;vertical-align:top;">domain</td><td style="vertical-align:top;">:</td><td><div></div></td></tr><tr><td style="font-weight:bold;vertical-align:top;">expires</td><td style="vertical-align:top;">:</td><td><div></div></td></tr><tr><td style="font-weight:bold;vertical-align:top;">httponly</td><td style="vertical-align:top;">:</td><td><div></div></td></tr><tr><td style="font-weight:bold;vertical-align:top;">max-age</td><td style="vertical-align:top;">:</td><td><div></div></td></tr><tr><td style="font-weight:bold;vertical-align:top;">path</td><td style="vertical-align:top;">:</td><td><div></div></td></tr><tr><td style="font-weight:bold;vertical-align:top;">secure</td><td style="vertical-align:top;">:</td><td><div></div></td></tr><tr><td style="font-weight:bold;vertical-align:top;">version</td><td style="vertical-align:top;">:</td><td><div></div></td></tr></table></div></td></tr><tr><td style="font-weight:bold;vertical-align:top;">session_id_admin</td><td style="vertical-align:top;">:</td><td><div>10.26.255.68-b153f14c-cc41-4219-a330-9a89dbe30eef<table><tr><td style="font-weight:bold;vertical-align:top;">comment</td><td style="vertical-align:top;">:</td><td><div></div></td></tr><tr><td style="font-weight:bold;vertical-align:top;">domain</td><td style="vertical-align:top;">:</td><td><div></div></td></tr><tr><td style="font-weight:bold;vertical-align:top;">expires</td><td style="vertical-align:top;">:</td><td><div></div></td></tr><tr><td style="font-weight:bold;vertical-align:top;">httponly</td><td style="vertical-align:top;">:</td><td><div></div></td></tr><tr><td style="font-weight:bold;vertical-align:top;">max-age</td><td style="vertical-align:top;">:</td><td><div></div></td></tr><tr><td style="font-weight:bold;vertical-align:top;">path</td><td style="vertical-align:top;">:</td><td><div></div></td></tr><tr><td style="font-weight:bold;vertical-align:top;">secure</td><td style="vertical-align:top;">:</td><td><div></div></td></tr><tr><td style="font-weight:bold;vertical-align:top;">version</td><td style="vertical-align:top;">:</td><td><div></div></td></tr></table></div></td></tr><tr><td style="font-weight:bold;vertical-align:top;">session_id_ji103</td><td style="vertical-align:top;">:</td><td><div>10.26.255.68-f0e70d59-fe42-4e7e-9c58-fa80dbf94aab<table><tr><td style="font-weight:bold;vertical-align:top;">comment</td><td style="vertical-align:top;">:</td><td><div></div></td></tr><tr><td style="font-weight:bold;vertical-align:top;">domain</td><td style="vertical-align:top;">:</td><td><div></div></td></tr><tr><td style="font-weight:bold;vertical-align:top;">expires</td><td style="vertical-align:top;">:</td><td><div></div></td></tr><tr><td style="font-weight:bold;vertical-align:top;">httponly</td><td style="vertical-align:top;">:</td><td><div></div></td></tr><tr><td style="font-weight:bold;vertical-align:top;">max-age</td><td style="vertical-align:top;">:</td><td><div></div></td></tr><tr><td style="font-weight:bold;vertical-align:top;">path</td><td style="vertical-align:top;">:</td><td><div></div></td></tr><tr><td style="font-weight:bold;vertical-align:top;">secure</td><td style="vertical-align:top;">:</td><td><div></div></td></tr><tr><td style="font-weight:bold;vertical-align:top;">version</td><td style="vertical-align:top;">:</td><td><div></div></td></tr></table></div></td></tr><tr><td style="font-weight:bold;vertical-align:top;">session_id_ji105</td><td style="vertical-align:top;">:</td><td><div>10.26.255.68-966c2b26-6feb-4764-8f41-6573263e247a<table><tr><td style="font-weight:bold;vertical-align:top;">comment</td><td style="vertical-align:top;">:</td><td><div></div></td></tr><tr><td style="font-weight:bold;vertical-align:top;">domain</td><td style="vertical-align:top;">:</td><td><div></div></td></tr><tr><td style="font-weight:bold;vertical-align:top;">expires</td><td style="vertical-align:top;">:</td><td><div></div></td></tr><tr><td style="font-weight:bold;vertical-align:top;">httponly</td><td style="vertical-align:top;">:</td><td><div></div></td></tr><tr><td style="font-weight:bold;vertical-align:top;">max-age</td><td style="vertical-align:top;">:</td><td><div></div></td></tr><tr><td style="font-weight:bold;vertical-align:top;">path</td><td style="vertical-align:top;">:</td><td><div></div></td></tr><tr><td style="font-weight:bold;vertical-align:top;">secure</td><td style="vertical-align:top;">:</td><td><div></div></td></tr><tr><td style="font-weight:bold;vertical-align:top;">version</td><td style="vertical-align:top;">:</td><td><div></div></td></tr></table></div></td></tr><tr><td style="font-weight:bold;vertical-align:top;">session_id_ji163</td><td style="vertical-align:top;">:</td><td><div>10.26.255.68-2caa475a-a747-434f-930e-43cf4a0b650f<table><tr><td style="font-weight:bold;vertical-align:top;">comment</td><td style="vertical-align:top;">:</td><td><div></div></td></tr><tr><td style="font-weight:bold;vertical-align:top;">domain</td><td style="vertical-align:top;">:</td><td><div></div></td></tr><tr><td style="font-weight:bold;vertical-align:top;">expires</td><td style="vertical-align:top;">:</td><td><div></div></td></tr><tr><td style="font-weight:bold;vertical-align:top;">httponly</td><td style="vertical-align:top;">:</td><td><div></div></td></tr><tr><td style="font-weight:bold;vertical-align:top;">max-age</td><td style="vertical-align:top;">:</td><td><div></div></td></tr><tr><td style="font-weight:bold;vertical-align:top;">path</td><td style="vertical-align:top;">:</td><td><div></div></td></tr><tr><td style="font-weight:bold;vertical-align:top;">secure</td><td style="vertical-align:top;">:</td><td><div></div></td></tr><tr><td style="font-weight:bold;vertical-align:top;">version</td><td style="vertical-align:top;">:</td><td><div></div></td></tr></table></div></td></tr><tr><td style="font-weight:bold;vertical-align:top;">session_id_ji165</td><td style="vertical-align:top;">:</td><td><div>10.26.255.68-1608534a-e08f-4780-b9fa-00bd1142e5e4<table><tr><td style="font-weight:bold;vertical-align:top;">comment</td><td style="vertical-align:top;">:</td><td><div></div></td></tr><tr><td style="font-weight:bold;vertical-align:top;">domain</td><td style="vertical-align:top;">:</td><td><div></div></td></tr><tr><td style="font-weight:bold;vertical-align:top;">expires</td><td style="vertical-align:top;">:</td><td><div></div></td></tr><tr><td style="font-weight:bold;vertical-align:top;">httponly</td><td style="vertical-align:top;">:</td><td><div></div></td></tr><tr><td style="font-weight:bold;vertical-align:top;">max-age</td><td style="vertical-align:top;">:</td><td><div></div></td></tr><tr><td style="font-weight:bold;vertical-align:top;">path</td><td style="vertical-align:top;">:</td><td><div></div></td></tr><tr><td style="font-weight:bold;vertical-align:top;">secure</td><td style="vertical-align:top;">:</td><td><div></div></td></tr><tr><td style="font-weight:bold;vertical-align:top;">version</td><td style="vertical-align:top;">:</td><td><div></div></td></tr></table></div></td></tr><tr><td style="font-weight:bold;vertical-align:top;">session_id_ji167</td><td style="vertical-align:top;">:</td><td><div>10.26.255.68-3833866d-e9ec-43b1-97c0-d05dba18be7a<table><tr><td style="font-weight:bold;vertical-align:top;">comment</td><td style="vertical-align:top;">:</td><td><div></div></td></tr><tr><td style="font-weight:bold;vertical-align:top;">domain</td><td style="vertical-align:top;">:</td><td><div></div></td></tr><tr><td style="font-weight:bold;vertical-align:top;">expires</td><td style="vertical-align:top;">:</td><td><div></div></td></tr><tr><td style="font-weight:bold;vertical-align:top;">httponly</td><td style="vertical-align:top;">:</td><td><div></div></td></tr><tr><td style="font-weight:bold;vertical-align:top;">max-age</td><td style="vertical-align:top;">:</td><td><div></div></td></tr><tr><td style="font-weight:bold;vertical-align:top;">path</td><td style="vertical-align:top;">:</td><td><div></div></td></tr><tr><td style="font-weight:bold;vertical-align:top;">secure</td><td style="vertical-align:top;">:</td><td><div></div></td></tr><tr><td style="font-weight:bold;vertical-align:top;">version</td><td style="vertical-align:top;">:</td><td><div></div></td></tr></table></div></td></tr><tr><td style="font-weight:bold;vertical-align:top;">session_id_newlic</td><td style="vertical-align:top;">:</td><td><div>10.26.255.68-18da9b65-9cf4-4461-8cc4-f0330d4ddda2<table><tr><td style="font-weight:bold;vertical-align:top;">comment</td><td style="vertical-align:top;">:</td><td><div></div></td></tr><tr><td style="font-weight:bold;vertical-align:top;">domain</td><td style="vertical-align:top;">:</td><td><div></div></td></tr><tr><td style="font-weight:bold;vertical-align:top;">expires</td><td style="vertical-align:top;">:</td><td><div></div></td></tr><tr><td style="font-weight:bold;vertical-align:top;">httponly</td><td style="vertical-align:top;">:</td><td><div></div></td></tr><tr><td style="font-weight:bold;vertical-align:top;">max-age</td><td style="vertical-align:top;">:</td><td><div></div></td></tr><tr><td style="font-weight:bold;vertical-align:top;">path</td><td style="vertical-align:top;">:</td><td><div></div></td></tr><tr><td style="font-weight:bold;vertical-align:top;">secure</td><td style="vertical-align:top;">:</td><td><div></div></td></tr><tr><td style="font-weight:bold;vertical-align:top;">version</td><td style="vertical-align:top;">:</td><td><div></div></td></tr></table></div></td></tr><tr><td style="font-weight:bold;vertical-align:top;">session_id_welcome</td><td style="vertical-align:top;">:</td><td><div>10.26.255.68-33290fc4-20a5-4fe9-87b4-e0e22e732d33<table><tr><td style="font-weight:bold;vertical-align:top;">comment</td><td style="vertical-align:top;">:</td><td><div></div></td></tr><tr><td style="font-weight:bold;vertical-align:top;">domain</td><td style="vertical-align:top;">:</td><td><div></div></td></tr><tr><td style="font-weight:bold;vertical-align:top;">expires</td><td style="vertical-align:top;">:</td><td><div></div></td></tr><tr><td style="font-weight:bold;vertical-align:top;">httponly</td><td style="vertical-align:top;">:</td><td><div></div></td></tr><tr><td style="font-weight:bold;vertical-align:top;">max-age</td><td style="vertical-align:top;">:</td><td><div></div></td></tr><tr><td style="font-weight:bold;vertical-align:top;">path</td><td style="vertical-align:top;">:</td><td><div></div></td></tr><tr><td style="font-weight:bold;vertical-align:top;">secure</td><td style="vertical-align:top;">:</td><td><div></div></td></tr><tr><td style="font-weight:bold;vertical-align:top;">version</td><td style="vertical-align:top;">:</td><td><div></div></td></tr></table></div></td></tr></table></div></td></tr><tr><td style="font-weight:bold;vertical-align:top;">env</td><td style="vertical-align:top;">:</td><td><div><table><tr><td style="font-weight:bold;vertical-align:top;">HTTP_ACCEPT</td><td style="vertical-align:top;">:</td><td><div>text/html,application/xhtml+xml,application/xml;q=0.9,*/*;q=0.8</div></td></tr><tr><td style="font-weight:bold;vertical-align:top;">HTTP_ACCEPT_ENCODING</td><td style="vertical-align:top;">:</td><td><div>gzip, deflate, br</div></td></tr><tr><td style="font-weight:bold;vertical-align:top;">HTTP_ACCEPT_LANGUAGE</td><td style="vertical-align:top;">:</td><td><div>ru-RU,ru;q=0.8,en-US;q=0.5,en;q=0.3</div></td></tr><tr><td style="font-weight:bold;vertical-align:top;">HTTP_CACHE_CONTROL</td><td style="vertical-align:top;">:</td><td><div>max-age=0</div></td></tr><tr><td style="font-weight:bold;vertical-align:top;">HTTP_CONNECTION</td><td style="vertical-align:top;">:</td><td><div>close</div></td></tr><tr><td style="font-weight:bold;vertical-align:top;">HTTP_COOKIE</td><td style="vertical-align:top;">:</td><td><div>session_id_ji103=10.26.255.68-f0e70d59-fe42-4e7e-9c58-fa80dbf94aab; session_id_welcome=10.26.255.68-33290fc4-20a5-4fe9-87b4-e0e22e732d33; session_id_newlic=10.26.255.68-18da9b65-9cf4-4461-8cc4-f0330d4ddda2; session_id_admin=10.26.255.68-b153f14c-cc41-4219-a330-9a89dbe30eef; session_id_ji105=10.26.255.68-966c2b26-6feb-4764-8f41-6573263e247a; TawkConnectionTime=0; __tawkuuid=e::sun.minfindnr.ru::ZuyWLKqp6e2T0WBZ+BoJinVryJ8xQjYaEx4XEuUeLYibyZ7Q2VOBiz7NUU7dIIjs::2; session_id_ji167=10.26.255.68-3833866d-e9ec-43b1-97c0-d05dba18be7a; session_id_ji165=10.26.255.68-1608534a-e08f-4780-b9fa-00bd1142e5e4; session_id_ji163=10.26.255.68-2caa475a-a747-434f-930e-43cf4a0b650f</div></td></tr><tr><td style="font-weight:bold;vertical-align:top;">HTTP_HOST</td><td style="vertical-align:top;">:</td><td><div>sun.minfindnr.ru</div></td></tr><tr><td style="font-weight:bold;vertical-align:top;">HTTP_REFERER</td><td style="vertical-align:top;">:</td><td><div>https://sun.minfindnr.ru/ji163/default/dashboard</div></td></tr><tr><td style="font-weight:bold;vertical-align:top;">HTTP_UPGRADE_INSECURE_REQUESTS</td><td style="vertical-align:top;">:</td><td><div>1</div></td></tr><tr><td style="font-weight:bold;vertical-align:top;">HTTP_USER_AGENT</td><td style="vertical-align:top;">:</td><td><div>Mozilla/5.0 (Windows NT 6.1; rv:67.0) Gecko/20100101 Firefox/67.0</div></td></tr><tr><td style="font-weight:bold;vertical-align:top;">HTTP_X_FORWARDED_BY</td><td style="vertical-align:top;">:</td><td><div>92.242.125.188:443</div></td></tr><tr><td style="font-weight:bold;vertical-align:top;">HTTP_X_FORWARDED_FOR</td><td style="vertical-align:top;">:</td><td><div>10.26.255.68</div></td></tr><tr><td style="font-weight:bold;vertical-align:top;">HTTP_X_FORWARDED_PROTO</td><td style="vertical-align:top;">:</td><td><div>https</div></td></tr><tr><td style="font-weight:bold;vertical-align:top;">HTTP_X_FORWARDED_SSL</td><td style="vertical-align:top;">:</td><td><div>on</div></td></tr><tr><td style="font-weight:bold;vertical-align:top;">HTTP_X_REAL_IP</td><td style="vertical-align:top;">:</td><td><div>10.26.255.68</div></td></tr><tr><td style="font-weight:bold;vertical-align:top;">PATH_INFO</td><td style="vertical-align:top;">:</td><td><div>/ji163/default/dashboard</div></td></tr><tr><td style="font-weight:bold;vertical-align:top;">QUERY_STRING</td><td style="vertical-align:top;">:</td><td><div></div></td></tr><tr><td style="font-weight:bold;vertical-align:top;">RAW_URI</td><td style="vertical-align:top;">:</td><td><div>/ji163/default/dashboard</div></td></tr><tr><td style="font-weight:bold;vertical-align:top;">REMOTE_ADDR</td><td style="vertical-align:top;">:</td><td><div></div></td></tr><tr><td style="font-weight:bold;vertical-align:top;">REQUEST_METHOD</td><td style="vertical-align:top;">:</td><td><div>GET</div></td></tr><tr><td style="font-weight:bold;vertical-align:top;">SCRIPT_NAME</td><td style="vertical-align:top;">:</td><td><div></div></td></tr><tr><td style="font-weight:bold;vertical-align:top;">SERVER_NAME</td><td style="vertical-align:top;">:</td><td><div>sun.minfindnr.ru</div></td></tr><tr><td style="font-weight:bold;vertical-align:top;">SERVER_PORT</td><td style="vertical-align:top;">:</td><td><div>443</div></td></tr><tr><td style="font-weight:bold;vertical-align:top;">SERVER_PROTOCOL</td><td style="vertical-align:top;">:</td><td><div>HTTP/1.0</div></td></tr><tr><td style="font-weight:bold;vertical-align:top;">SERVER_SOFTWARE</td><td style="vertical-align:top;">:</td><td><div>gunicorn/19.1.0</div></td></tr><tr><td style="font-weight:bold;vertical-align:top;">app_folders</td><td style="vertical-align:top;">:</td><td><div>set([&#x27;/home/w2p/web2py/applications/ji137/&#x27;, &#x27;/home/w2p/web2py/applications/ji103/&#x27;, &#x27;/home/w2p/web2py/applications/ji124/&#x27;, &#x27;/home/w2p/web2py/applications/admin/&#x27;, &#x27;/home/w2p/web2py/applications/ji177/&#x27;, &#x27;/home/w2p/web2py/applications/ji164/&#x27;, &#x27;/home/w2p/web2py/applications/ji105/&#x27;, &#x27;/home/w2p/web2py/applications/welcome/&#x27;, &#x27;/home/w2p/web2py/applications/ji140/&#x27;, &#x27;/home/w2p/web2py/applications/aji175/&#x27;, &#x27;/home/w2p/web2py/applications/newlic/&#x27;, &#x27;/home/w2p/web2py/applications/ji197/&#x27;, &#x27;/home/w2p/web2py/applications/lic/&#x27;, &#x27;/home/w2p/web2py/applications/ji123/&#x27;, &#x27;/home/w2p/web2py/applications/ji173/&#x27;, &#x27;/home/w2p/web2py/applications/ji129/&#x27;, &#x27;/home/w2p/web2py/applications/ji104/&#x27;, &#x27;/home/w2p/web2py/applications/ji163/&#x27;, &#x27;/home/w2p/web2py/applications/ji175/&#x27;, &#x27;/home/w2p/web2py/applications/gae/&#x27;, &#x27;/home/w2p/web2py/applications/fmbnk/&#x27;, &#x27;/home/w2p/web2py/applications/ji190/&#x27;, &#x27;/home/w2p/web2py/applications/up1/&#x27;])</div></td></tr><tr><td style="font-weight:bold;vertical-align:top;">applications_parent</td><td style="vertical-align:top;">:</td><td><div>/home/w2p/web2py</div></td></tr><tr><td style="font-weight:bold;vertical-align:top;">db_sessions</td><td style="vertical-align:top;">:</td><td><div>set([])</div></td></tr><tr><td style="font-weight:bold;vertical-align:top;">debugging</td><td style="vertical-align:top;">:</td><td><div>False</div></td></tr><tr><td style="font-weight:bold;vertical-align:top;">gluon_parent</td><td style="vertical-align:top;">:</td><td><div>/home/w2p/web2py</div></td></tr><tr><td style="font-weight:bold;vertical-align:top;">gunicorn.socket</td><td style="vertical-align:top;">:</td><td><div>&lt;socket._socketobject object at 0x7fe2cdae5d70&gt;</div></td></tr><tr><td style="font-weight:bold;vertical-align:top;">gunicorn_socket</td><td style="vertical-align:top;">:</td><td><div>&lt;socket._socketobject object at 0x7fe2cdae5d70&gt;</div></td></tr><tr><td style="font-weight:bold;vertical-align:top;">http_accept</td><td style="vertical-align:top;">:</td><td><div>text/html,application/xhtml+xml,application/xml;q=0.9,*/*;q=0.8</div></td></tr><tr><td style="font-weight:bold;vertical-align:top;">http_accept_encoding</td><td style="vertical-align:top;">:</td><td><div>gzip, deflate, br</div></td></tr><tr><td style="font-weight:bold;vertical-align:top;">http_accept_language</td><td style="vertical-align:top;">:</td><td><div>ru-RU,ru;q=0.8,en-US;q=0.5,en;q=0.3</div></td></tr><tr><td style="font-weight:bold;vertical-align:top;">http_cache_control</td><td style="vertical-align:top;">:</td><td><div>max-age=0</div></td></tr><tr><td style="font-weight:bold;vertical-align:top;">http_connection</td><td style="vertical-align:top;">:</td><td><div>close</div></td></tr><tr><td style="font-weight:bold;vertical-align:top;">http_cookie</td><td style="vertical-align:top;">:</td><td><div>session_id_ji103=10.26.255.68-f0e70d59-fe42-4e7e-9c58-fa80dbf94aab; session_id_welcome=10.26.255.68-33290fc4-20a5-4fe9-87b4-e0e22e732d33; session_id_newlic=10.26.255.68-18da9b65-9cf4-4461-8cc4-f0330d4ddda2; session_id_admin=10.26.255.68-b153f14c-cc41-4219-a330-9a89dbe30eef; session_id_ji105=10.26.255.68-966c2b26-6feb-4764-8f41-6573263e247a; TawkConnectionTime=0; __tawkuuid=e::sun.minfindnr.ru::ZuyWLKqp6e2T0WBZ+BoJinVryJ8xQjYaEx4XEuUeLYibyZ7Q2VOBiz7NUU7dIIjs::2; session_id_ji167=10.26.255.68-3833866d-e9ec-43b1-97c0-d05dba18be7a; session_id_ji165=10.26.255.68-1608534a-e08f-4780-b9fa-00bd1142e5e4; session_id_ji163=10.26.255.68-2caa475a-a747-434f-930e-43cf4a0b650f</div></td></tr><tr><td style="font-weight:bold;vertical-align:top;">http_host</td><td style="vertical-align:top;">:</td><td><div>sun.minfindnr.ru</div></td></tr><tr><td style="font-weight:bold;vertical-align:top;">http_referer</td><td style="vertical-align:top;">:</td><td><div>https://sun.minfindnr.ru/ji163/default/dashboard</div></td></tr><tr><td style="font-weight:bold;vertical-align:top;">http_upgrade_insecure_requests</td><td style="vertical-align:top;">:</td><td><div>1</div></td></tr><tr><td style="font-weight:bold;vertical-align:top;">http_user_agent</td><td style="vertical-align:top;">:</td><td><div>Mozilla/5.0 (Windows NT 6.1; rv:67.0) Gecko/20100101 Firefox/67.0</div></td></tr><tr><td style="font-weight:bold;vertical-align:top;">http_x_forwarded_by</td><td style="vertical-align:top;">:</td><td><div>92.242.125.188:443</div></td></tr><tr><td style="font-weight:bold;vertical-align:top;">http_x_forwarded_for</td><td style="vertical-align:top;">:</td><td><div>10.26.255.68</div></td></tr><tr><td style="font-weight:bold;vertical-align:top;">http_x_forwarded_proto</td><td style="vertical-align:top;">:</td><td><div>https</div></td></tr><tr><td style="font-weight:bold;vertical-align:top;">http_x_forwarded_ssl</td><td style="vertical-align:top;">:</td><td><div>on</div></td></tr><tr><td style="font-weight:bold;vertical-align:top;">http_x_real_ip</td><td style="vertical-align:top;">:</td><td><div>10.26.255.68</div></td></tr><tr><td style="font-weight:bold;vertical-align:top;">is_jython</td><td style="vertical-align:top;">:</td><td><div>False</div></td></tr><tr><td style="font-weight:bold;vertical-align:top;">is_py2</td><td style="vertical-align:top;">:</td><td><div>True</div></td></tr><tr><td style="font-weight:bold;vertical-align:top;">is_pypy</td><td style="vertical-align:top;">:</td><td><div>False</div></td></tr><tr><td style="font-weight:bold;vertical-align:top;">is_source</td><td style="vertical-align:top;">:</td><td><div>True</div></td></tr><tr><td style="font-weight:bold;vertical-align:top;">local_hosts</td><td style="vertical-align:top;">:</td><td><div><table><tr><td><div>sun.minfindnr.ru</div></td></tr><tr><td><div>::1</div></td></tr><tr><td><div>92.242.125.188</div></td></tr><tr><td><div>::ffff:127.0.0.1</div></td></tr><tr><td><div>127.0.0.1</div></td></tr></table></div></td></tr><tr><td style="font-weight:bold;vertical-align:top;">path_info</td><td style="vertical-align:top;">:</td><td><div>/ji163/default/dashboard</div></td></tr><tr><td style="font-weight:bold;vertical-align:top;">query_string</td><td style="vertical-align:top;">:</td><td><div></div></td></tr><tr><td style="font-weight:bold;vertical-align:top;">raw_uri</td><td style="vertical-align:top;">:</td><td><div>/ji163/default/dashboard</div></td></tr><tr><td style="font-weight:bold;vertical-align:top;">remote_addr</td><td style="vertical-align:top;">:</td><td><div></div></td></tr><tr><td style="font-weight:bold;vertical-align:top;">request_method</td><td style="vertical-align:top;">:</td><td><div>GET</div></td></tr><tr><td style="font-weight:bold;vertical-align:top;">request_uri</td><td style="vertical-align:top;">:</td><td><div>/ji163/default/dashboard</div></td></tr><tr><td style="font-weight:bold;vertical-align:top;">script_name</td><td style="vertical-align:top;">:</td><td><div></div></td></tr><tr><td style="font-weight:bold;vertical-align:top;">server_name</td><td style="vertical-align:top;">:</td><td><div>sun.minfindnr.ru</div></td></tr><tr><td style="font-weight:bold;vertical-align:top;">server_port</td><td style="vertical-align:top;">:</td><td><div>443</div></td></tr><tr><td style="font-weight:bold;vertical-align:top;">server_protocol</td><td style="vertical-align:top;">:</td><td><div>HTTP/1.0</div></td></tr><tr><td style="font-weight:bold;vertical-align:top;">server_software</td><td style="vertical-align:top;">:</td><td><div>gunicorn/19.1.0</div></td></tr><tr><td style="font-weight:bold;vertical-align:top;">web2py_path</td><td style="vertical-align:top;">:</td><td><div>/home/w2p/web2py</div></td></tr><tr><td style="font-weight:bold;vertical-align:top;">web2py_version</td><td style="vertical-align:top;">:</td><td><div>2.15.4-stable+timestamp.2017.09.02.04.02.22</div></td></tr><tr><td style="font-weight:bold;vertical-align:top;">wsgi.errors</td><td style="vertical-align:top;">:</td><td><div>&lt;gunicorn.http.wsgi.WSGIErrorsWraper object at 0x7fe2cdcd8890&gt;</div></td></tr><tr><td style="font-weight:bold;vertical-align:top;">wsgi.file_wrapper</td><td style="vertical-align:top;">:</td><td><div>&lt;class &#x27;gunicorn.http.wsgi.FileWrapper&#x27;&gt;</div></td></tr><tr><td style="font-weight:bold;vertical-align:top;">wsgi.input</td><td style="vertical-align:top;">:</td><td><div>&lt;gunicorn.http.body.Body object at 0x7fe2cdcd88d0&gt;</div></td></tr><tr><td style="font-weight:bold;vertical-align:top;">wsgi.multiprocess</td><td style="vertical-align:top;">:</td><td><div>True</div></td></tr><tr><td style="font-weight:bold;vertical-align:top;">wsgi.multithread</td><td style="vertical-align:top;">:</td><td><div>False</div></td></tr><tr><td style="font-weight:bold;vertical-align:top;">wsgi.run_once</td><td style="vertical-align:top;">:</td><td><div>False</div></td></tr><tr><td style="font-weight:bold;vertical-align:top;">wsgi.url_scheme</td><td style="vertical-align:top;">:</td><td><div>https</div></td></tr><tr><td style="font-weight:bold;vertical-align:top;">wsgi.version</td><td style="vertical-align:top;">:</td><td><div><table><tr><td><div>1</div></td></tr><tr><td><div>0</div></td></tr></table></div></td></tr><tr><td style="font-weight:bold;vertical-align:top;">wsgi_errors</td><td style="vertical-align:top;">:</td><td><div>&lt;gunicorn.http.wsgi.WSGIErrorsWraper object at 0x7fe2cdcd8890&gt;</div></td></tr><tr><td style="font-weight:bold;vertical-align:top;">wsgi_file_wrapper</td><td style="vertical-align:top;">:</td><td><div>&lt;class &#x27;gunicorn.http.wsgi.FileWrapper&#x27;&gt;</div></td></tr><tr><td style="font-weight:bold;vertical-align:top;">wsgi_input</td><td style="vertical-align:top;">:</td><td><div>&lt;gunicorn.http.body.Body object at 0x7fe2cdcd88d0&gt;</div></td></tr><tr><td style="font-weight:bold;vertical-align:top;">wsgi_multiprocess</td><td style="vertical-align:top;">:</td><td><div>True</div></td></tr><tr><td style="font-weight:bold;vertical-align:top;">wsgi_multithread</td><td style="vertical-align:top;">:</td><td><div>False</div></td></tr><tr><td style="font-weight:bold;vertical-align:top;">wsgi_run_once</td><td style="vertical-align:top;">:</td><td><div>False</div></td></tr><tr><td style="font-weight:bold;vertical-align:top;">wsgi_url_scheme</td><td style="vertical-align:top;">:</td><td><div>https</div></td></tr><tr><td style="font-weight:bold;vertical-align:top;">wsgi_version</td><td style="vertical-align:top;">:</td><td><div><table><tr><td><div>1</div></td></tr><tr><td><div>0</div></td></tr></table></div></td></tr></table></div></td></tr><tr><td style="font-weight:bold;vertical-align:top;">extension</td><td style="vertical-align:top;">:</td><td><div>html</div></td></tr><tr><td style="font-weight:bold;vertical-align:top;">folder</td><td style="vertical-align:top;">:</td><td><div>/home/w2p/web2py/applications/ji163/</div></td></tr><tr><td style="font-weight:bold;vertical-align:top;">function</td><td style="vertical-align:top;">:</td><td><div>dashboard</div></td></tr><tr><td style="font-weight:bold;vertical-align:top;">global_settings</td><td style="vertical-align:top;">:</td><td><div><table><tr><td style="font-weight:bold;vertical-align:top;">app_folders</td><td style="vertical-align:top;">:</td><td><div>set([&#x27;/home/w2p/web2py/applications/ji137/&#x27;, &#x27;/home/w2p/web2py/applications/ji103/&#x27;, &#x27;/home/w2p/web2py/applications/ji124/&#x27;, &#x27;/home/w2p/web2py/applications/admin/&#x27;, &#x27;/home/w2p/web2py/applications/ji177/&#x27;, &#x27;/home/w2p/web2py/applications/ji164/&#x27;, &#x27;/home/w2p/web2py/applications/ji105/&#x27;, &#x27;/home/w2p/web2py/applications/welcome/&#x27;, &#x27;/home/w2p/web2py/applications/ji140/&#x27;, &#x27;/home/w2p/web2py/applications/aji175/&#x27;, &#x27;/home/w2p/web2py/applications/newlic/&#x27;, &#x27;/home/w2p/web2py/applications/ji197/&#x27;, &#x27;/home/w2p/web2py/applications/lic/&#x27;, &#x27;/home/w2p/web2py/applications/ji123/&#x27;, &#x27;/home/w2p/web2py/applications/ji173/&#x27;, &#x27;/home/w2p/web2py/applications/ji129/&#x27;, &#x27;/home/w2p/web2py/applications/ji104/&#x27;, &#x27;/home/w2p/web2py/applications/ji163/&#x27;, &#x27;/home/w2p/web2py/applications/ji175/&#x27;, &#x27;/home/w2p/web2py/applications/gae/&#x27;, &#x27;/home/w2p/web2py/applications/fmbnk/&#x27;, &#x27;/home/w2p/web2py/applications/ji190/&#x27;, &#x27;/home/w2p/web2py/applications/up1/&#x27;])</div></td></tr><tr><td style="font-weight:bold;vertical-align:top;">applications_parent</td><td style="vertical-align:top;">:</td><td><div>/home/w2p/web2py</div></td></tr><tr><td style="font-weight:bold;vertical-align:top;">db_sessions</td><td style="vertical-align:top;">:</td><td><div>set([])</div></td></tr><tr><td style="font-weight:bold;vertical-align:top;">debugging</td><td style="vertical-align:top;">:</td><td><div>False</div></td></tr><tr><td style="font-weight:bold;vertical-align:top;">gluon_parent</td><td style="vertical-align:top;">:</td><td><div>/home/w2p/web2py</div></td></tr><tr><td style="font-weight:bold;vertical-align:top;">is_jython</td><td style="vertical-align:top;">:</td><td><div>False</div></td></tr><tr><td style="font-weight:bold;vertical-align:top;">is_py2</td><td style="vertical-align:top;">:</td><td><div>True</div></td></tr><tr><td style="font-weight:bold;vertical-align:top;">is_pypy</td><td style="vertical-align:top;">:</td><td><div>False</div></td></tr><tr><td style="font-weight:bold;vertical-align:top;">is_source</td><td style="vertical-align:top;">:</td><td><div>True</div></td></tr><tr><td style="font-weight:bold;vertical-align:top;">local_hosts</td><td style="vertical-align:top;">:</td><td><div><table><tr><td><div>sun.minfindnr.ru</div></td></tr><tr><td><div>::1</div></td></tr><tr><td><div>92.242.125.188</div></td></tr><tr><td><div>::ffff:127.0.0.1</div></td></tr><tr><td><div>127.0.0.1</div></td></tr></table></div></td></tr><tr><td style="font-weight:bold;vertical-align:top;">web2py_version</td><td style="vertical-align:top;">:</td><td><div>2.15.4-stable+timestamp.2017.09.02.04.02.22</div></td></tr></table></div></td></tr><tr><td style="font-weight:bold;vertical-align:top;">is_https</td><td style="vertical-align:top;">:</td><td><div>True</div></td></tr><tr><td style="font-weight:bold;vertical-align:top;">is_local</td><td style="vertical-align:top;">:</td><td><div>False</div></td></tr><tr><td style="font-weight:bold;vertical-align:top;">is_restful</td><td style="vertical-align:top;">:</td><td><div>False</div></td></tr><tr><td style="font-weight:bold;vertical-align:top;">is_scheduler</td><td style="vertical-align:top;">:</td><td><div>False</div></td></tr><tr><td style="font-weight:bold;vertical-align:top;">is_shell</td><td style="vertical-align:top;">:</td><td><div>False</div></td></tr><tr><td style="font-weight:bold;vertical-align:top;">now</td><td style="vertical-align:top;">:</td><td><div>datetime.datetime(2019, 5, 20, 17, 26, 27, 404730)</div></td></tr><tr><td style="font-weight:bold;vertical-align:top;">raw_args</td><td style="vertical-align:top;">:</td><td><div></div></td></tr><tr><td style="font-weight:bold;vertical-align:top;">raw_extension</td><td style="vertical-align:top;">:</td><td><div>None</div></td></tr><tr><td style="font-weight:bold;vertical-align:top;">url</td><td style="vertical-align:top;">:</td><td><div>/ji163/default/dashboard</div></td></tr><tr><td style="font-weight:bold;vertical-align:top;">utcnow</td><td style="vertical-align:top;">:</td><td><div>datetime.datetime(2019, 5, 20, 14, 26, 27, 404751)</div></td></tr><tr><td style="font-weight:bold;vertical-align:top;">wsgi</td><td style="vertical-align:top;">:</td><td><div>&lt;gluon.main.LazyWSGI object at 0x7fe2cdcb1190&gt;</div></td></tr></table></div>'
tRp60
sS'frames'
p61
(lp62
(dp63
S'file'
p64
S'/home/w2p/web2py/gluon/restricted.py'
p65
sS'dump'
p66
(dp67
S'environment'
p68
S"{'A': <class 'gluon.html.A'>, 'ANY_OF': <class 'gluon.validators.ANY_OF'>, 'ASSIGNJS': <function ASSIGNJS>, 'AppConfig': <function AppConfig>, 'Auth': <class 'gluon.tools.Auth'>, 'B': <class 'gluon.html.B'>, 'BEAUTIFY': <class 'gluon.html.BEAUTIFY'>, 'BODY': <class 'gluon.html.BODY'>, 'BR': <class 'gluon.html.BR'>, 'BUTTON': <class 'gluon.html.BUTTON'>, ...}"
p69
sS'ccode'
p70
S'<code object <module> at 0x7fe2ce75e8b0, file "/...lications/ji163/controllers/default.py", line 12>'
p71
ssS'lnum'
p72
I219
sS'lines'
p73
(dp74
I214
S'    if environment is None:'
p75
sI215
S'        environment = {}'
p76
sI216
S"    environment['__file__'] = layer"
p77
sI217
S"    environment['__name__'] = '__restricted__'"
p78
sI218
S'    try:'
p79
sI219
S'        exec(ccode, environment)'
p80
sI220
S'    except HTTP:'
p81
sI221
S'        raise'
p82
sI222
S'    except RestrictedError:'
p83
sI223
S'        # do not encapsulate (obfuscate) the original RestrictedError'
p84
ssS'call'
p85
S'(ccode=<code object <module> at 0x7fe2ce75e8b0, file "/...lications/ji163/controllers/default.py", line 12>, environment={\'A\': <class \'gluon.html.A\'>, \'ANY_OF\': <class \'gluon.validators.ANY_OF\'>, \'ASSIGNJS\': <function ASSIGNJS>, \'AppConfig\': <function AppConfig>, \'Auth\': <class \'gluon.tools.Auth\'>, \'B\': <class \'gluon.html.B\'>, \'BEAUTIFY\': <class \'gluon.html.BEAUTIFY\'>, \'BODY\': <class \'gluon.html.BODY\'>, \'BR\': <class \'gluon.html.BR\'>, \'BUTTON\': <class \'gluon.html.BUTTON\'>, ...}, layer=\'/home/w2p/web2py/applications/ji163/controllers/default.py\', scode=<code object <module> at 0x7fe2ce75e8b0, file "/...lications/ji163/controllers/default.py", line 12>)'
p86
sS'func'
p87
S'restricted'
p88
sa(dp89
g64
S'/home/w2p/web2py/applications/ji163/controllers/default.py'
p90
sg66
(dp91
sg72
I1539
sg73
(dp92
I1536
S''
sI1537
S''
sI1538
S'    return dict( DICT= rows_dict, no_left_sidebarform0= no_left_sidebarform0, )'
p93
sI1529
S''
sI1530
S'    if no_left_sidebarform0.accepts(request,session):'
p94
sI1531
S"        response.flash0 = 'submitted no_left_sidebarform0'"
p95
sI1532
S'    elif no_left_sidebarform0.errors:'
p96
sI1533
S"        response.flash0 = '!Errors! no_left_sidebarform0'"
p97
sI1534
S'    else:'
p98
sI1535
S"        response.flash0 = 'no_left_sidebarform0'"
p99
ssg85
S'()'
p100
sg87
S'<module>'
p101
sa(dp102
g64
S'/home/w2p/web2py/gluon/globals.py'
p103
sg66
(dp104
S'self'
p105
S'undefined'
p106
sS'f'
S'<function dashboard>'
p107
ssg72
I414
sg73
(dp108
I416
S'        self._custom_commit = None'
p109
sI417
S'        self._custom_rollback = None'
p110
sI418
S"        self.generic_patterns = ['*']"
p111
sI409
S"        self.flash = ''            # used by the default view layout"
p112
sI410
S'        self.meta = Storage()      # used by web2py_ajax.html'
p113
sI411
S'        self.menu = []             # used by the default view layout'
p114
sI412
S'        self.files = []            # used by web2py_ajax.html'
p115
sI413
S'        self._vars = None'
p116
sI414
S'        self._caller = lambda f: f()'
p117
sI415
S'        self._view_environment = None'
p118
ssg85
S'(f=<function dashboard>)'
p119
sg87
S'<lambda>'
p120
sa(dp121
g64
S'/home/w2p/web2py/applications/ji163/controllers/default.py'
p122
sg66
(dp123
S'_class'
p124
g106
sS'global SQLFORM'
p125
S"<class 'gluon.sqlhtml.SQLFORM'>"
p126
sS'dashboardform0'
p127
g106
sS'db.ddashboardform0'
p128
g106
sS'global db'
p129
S'<DAL uri="sqlite://storage.sqlite">'
p130
sS'_id'
p131
g106
ssg72
I405
sg73
(dp132
I400
S'    rows= db(qu).select()'
p133
sI401
S'    rows_dict = { r.f0 : r.f1 for r in rows }'
p134
sI402
S"    response.view = 'default/dashboard.html'"
p135
sI403
S''
sI404
S''
sI405
S"    dashboardform0 = SQLFORM(db.ddashboardform0, _class = 'main-search', _id= 'idUnk0' )"
p136
sI406
S''
sI407
S"    dashboardform0.element('input[name=f0]')['_placeholder']='f0 Live Search ...'"
p137
sI408
S"    dashboardform0.custom.submit['_title'] = 'submit dashboardform0'"
p138
sI409
S"    dashboardform0.element('input[name=f0]')['_class']='form-control'"
p139
ssg85
S'()'
p140
sg87
S'dashboard'
p141
sa(dp142
g64
S'/home/w2p/.conda/envs/lic/lib/python2.7/site-packages/pydal/base.py'
p143
sg66
(dp144
S'global BasicStorage'
p145
S"<class 'pydal.helpers.classes.BasicStorage'>"
p146
sS'self'
p147
S'<DAL uri="sqlite://storage.sqlite">'
p148
sS'BasicStorage.__getattribute__'
p149
S"<slot wrapper '__getattribute__' of 'object' objects>"
p150
sS'key'
p151
S"'ddashboardform0'"
p152
ssg72
I669
sg73
(dp153
I672
S"        if key[:1] != '_' and key in self:"
p154
sI673
S'            raise SyntaxError('
p155
sI664
S'    def __getattr__(self, key):'
p156
sI665
S"        if object.__getattribute__(self, '_lazy_tables') and \\"
p157
sI666
S"                key in object.__getattribute__(self, '_LAZY_TABLES'):"
p158
sI667
S'            tablename, fields, args = self._LAZY_TABLES.pop(key)'
p159
sI668
S'            return self.lazy_define_table(tablename, *fields, **args)'
p160
sI669
S'        return BasicStorage.__getattribute__(self, key)'
p161
sI670
S''
sI671
S'    def __setattr__(self, key, value):'
p162
ssg85
S'(self=<DAL uri="sqlite://storage.sqlite">, key=\'ddashboardform0\')'
p163
sg87
S'__getattr__'
p164
sasS'pyver'
p165
S'Python 2.7.13: /home/w2p/.conda/envs/lic/bin/python (prefix: /home/w2p/.conda/envs/lic)'
p166
sS'session'
p167
g59
(S's\x1a\x00\x00\x00<div><table></table></div>'
tRp168
sS'etype'
p169
S"<type 'exceptions.AttributeError'>"
p170
sS'date'
p171
S'Mon May 20 17:26:30 2019'
p172
sS'response'
p173
g59
(S's\x17$\x00\x00<div><table><tr><td style="font-weight:bold;vertical-align:top;">body</td><td style="vertical-align:top;">:</td><td><div>&lt;cStringIO.StringO object at 0x7fe2ceb575e0&gt;</div></td></tr><tr><td style="font-weight:bold;vertical-align:top;">cookies</td><td style="vertical-align:top;">:</td><td><div><table><tr><td style="font-weight:bold;vertical-align:top;">session_id_ji163</td><td style="vertical-align:top;">:</td><td><div>10.26.255.68-2caa475a-a747-434f-930e-43cf4a0b650f<table><tr><td style="font-weight:bold;vertical-align:top;">comment</td><td style="vertical-align:top;">:</td><td><div></div></td></tr><tr><td style="font-weight:bold;vertical-align:top;">domain</td><td style="vertical-align:top;">:</td><td><div></div></td></tr><tr><td style="font-weight:bold;vertical-align:top;">expires</td><td style="vertical-align:top;">:</td><td><div></div></td></tr><tr><td style="font-weight:bold;vertical-align:top;">httponly</td><td style="vertical-align:top;">:</td><td><div></div></td></tr><tr><td style="font-weight:bold;vertical-align:top;">max-age</td><td style="vertical-align:top;">:</td><td><div></div></td></tr><tr><td style="font-weight:bold;vertical-align:top;">path</td><td style="vertical-align:top;">:</td><td><div>/</div></td></tr><tr><td style="font-weight:bold;vertical-align:top;">secure</td><td style="vertical-align:top;">:</td><td><div></div></td></tr><tr><td style="font-weight:bold;vertical-align:top;">version</td><td style="vertical-align:top;">:</td><td><div></div></td></tr></table></div></td></tr></table></div></td></tr><tr><td style="font-weight:bold;vertical-align:top;">delimiters</td><td style="vertical-align:top;">:</td><td><div><table><tr><td><div>{{</div></td></tr><tr><td><div>}}</div></td></tr></table></div></td></tr><tr><td style="font-weight:bold;vertical-align:top;">files</td><td style="vertical-align:top;">:</td><td><div><table></table></div></td></tr><tr><td style="font-weight:bold;vertical-align:top;">flash</td><td style="vertical-align:top;">:</td><td><div></div></td></tr><tr><td style="font-weight:bold;vertical-align:top;">form_label_separator</td><td style="vertical-align:top;">:</td><td><div></div></td></tr><tr><td style="font-weight:bold;vertical-align:top;">formstyle</td><td style="vertical-align:top;">:</td><td><div>bootstrap3_inline</div></td></tr><tr><td style="font-weight:bold;vertical-align:top;">generic_patterns</td><td style="vertical-align:top;">:</td><td><div><table></table></div></td></tr><tr><td style="font-weight:bold;vertical-align:top;">headers</td><td style="vertical-align:top;">:</td><td><div><table><tr><td style="font-weight:bold;vertical-align:top;">X-Powered-By</td><td style="vertical-align:top;">:</td><td><div>xping</div></td></tr></table></div></td></tr><tr><td style="font-weight:bold;vertical-align:top;">menu</td><td style="vertical-align:top;">:</td><td><div><table><tr><td><div><table><tr><td><div>Myima</div></td></tr><tr><td><div>False</div></td></tr><tr><td><div>/ji163/myima/index</div></td></tr><tr><td><div><table></table></div></td></tr></table></div></td></tr><tr><td><div><table><tr><td><div>Myadd</div></td></tr><tr><td><div>False</div></td></tr><tr><td><div>/ji163/myadd/index</div></td></tr><tr><td><div><table></table></div></td></tr></table></div></td></tr><tr><td><div><table><tr><td><div>Home</div></td></tr><tr><td><div>False</div></td></tr><tr><td><div>/ji163/default/index</div></td></tr><tr><td><div><table></table></div></td></tr></table></div></td></tr><tr><td><div><table><tr><td><div>My Sites</div></td></tr><tr><td><div>False</div></td></tr><tr><td><div>/admin/default/site</div></td></tr></table></div></td></tr><tr><td><div><table><tr><td><div>This App</div></td></tr><tr><td><div>False</div></td></tr><tr><td><div>#</div></td></tr><tr><td><div><table><tr><td><div><table><tr><td><div>Design</div></td></tr><tr><td><div>False</div></td></tr><tr><td><div>/admin/default/design/ji163</div></td></tr></table></div></td></tr><tr><td><div><table><tr><td><div>Myadd ctrl</div></td></tr><tr><td><div>False</div></td></tr><tr><td><div>/admin/default/edit/ji163/controllers/myadd.py</div></td></tr></table></div></td></tr><tr><td><div><table><tr><td><div>Myima ctrl</div></td></tr><tr><td><div>False</div></td></tr><tr><td><div>/admin/default/edit/ji163/controllers/myima.py</div></td></tr></table></div></td></tr><tr><td><div><table><tr><td><div>default ctrl</div></td></tr><tr><td><div>False</div></td></tr><tr><td><div>/admin/default/edit/ji163/controllers/default.py</div></td></tr></table></div></td></tr><tr><td><div><table><tr><td><div>DB Model</div></td></tr><tr><td><div>False</div></td></tr><tr><td><div>/admin/default/edit/ji163/models/db.py</div></td></tr></table></div></td></tr><tr><td><div><table><tr><td><div>Database</div></td></tr><tr><td><div>False</div></td></tr><tr><td><div>/ji163/appadmin/index</div></td></tr></table></div></td></tr><tr><td><div><table><tr><td><div>Errors</div></td></tr><tr><td><div>False</div></td></tr><tr><td><div>/admin/default/errors/ji163</div></td></tr></table></div></td></tr><tr><td><div><table><tr><td><div>About</div></td></tr><tr><td><div>False</div></td></tr><tr><td><div>/admin/default/about/ji163</div></td></tr></table></div></td></tr></table></div></td></tr></table></div></td></tr><tr><td><div><table><tr><td><div>auth</div></td></tr><tr><td><div>False</div></td></tr><tr><td><div>/ji163/default/index</div></td></tr><tr><td><div><table><tr><td><div><table><tr><td><div>events</div></td></tr><tr><td><div>False</div></td></tr><tr><td><div>/ji163/myadd/auth_eventctrl</div></td></tr></table></div></td></tr><tr><td><div><table><tr><td><div>users</div></td></tr><tr><td><div>False</div></td></tr><tr><td><div>/ji163/myadd/auth_userctrl</div></td></tr></table></div></td></tr><tr><td><div><table><tr><td><div>groups</div></td></tr><tr><td><div>False</div></td></tr><tr><td><div>/ji163/myadd/auth_groupctrl</div></td></tr></table></div></td></tr><tr><td><div><table><tr><td><div>member</div></td></tr><tr><td><div>False</div></td></tr><tr><td><div>/ji163/myadd/auth_membershipctrl</div></td></tr></table></div></td></tr></table></div></td></tr></table></div></td></tr></table></div></td></tr><tr><td style="font-weight:bold;vertical-align:top;">meta</td><td style="vertical-align:top;">:</td><td><div><table></table></div></td></tr><tr><td style="font-weight:bold;vertical-align:top;">models_to_run</td><td style="vertical-align:top;">:</td><td><div><table><tr><td><div>^\\w+\\.py$</div></td></tr><tr><td><div>^default/\\w+\\.py$</div></td></tr><tr><td><div>^default/dashboard/\\w+\\.py$</div></td></tr></table></div></td></tr><tr><td style="font-weight:bold;vertical-align:top;">postprocessing</td><td style="vertical-align:top;">:</td><td><div><table></table></div></td></tr><tr><td style="font-weight:bold;vertical-align:top;">session_client</td><td style="vertical-align:top;">:</td><td><div>10.26.255.68</div></td></tr><tr><td style="font-weight:bold;vertical-align:top;">session_cookie_compression_level</td><td style="vertical-align:top;">:</td><td><div>None</div></td></tr><tr><td style="font-weight:bold;vertical-align:top;">session_cookie_expires</td><td style="vertical-align:top;">:</td><td><div>None</div></td></tr><tr><td style="font-weight:bold;vertical-align:top;">session_data_name</td><td style="vertical-align:top;">:</td><td><div>session_data_ji163</div></td></tr><tr><td style="font-weight:bold;vertical-align:top;">session_file</td><td style="vertical-align:top;">:</td><td><div>&lt;open file &#x27;/home/w2p/web2py/applications/ji163/sessions/1af/086/10.26.255.68-2caa475a-a747-434f-930e-43cf4a0b650f&#x27;, mode &#x27;rb+&#x27; at 0x7fe2cdcb7420&gt;</div></td></tr><tr><td style="font-weight:bold;vertical-align:top;">session_filename</td><td style="vertical-align:top;">:</td><td><div>/home/w2p/web2py/applications/ji163/sessions/10.26.255.68-2caa475a-a747-434f-930e-43cf4a0b650f</div></td></tr><tr><td style="font-weight:bold;vertical-align:top;">session_hash</td><td style="vertical-align:top;">:</td><td><div>fcc2f50eb485203fec6d511c495dc9d5</div></td></tr><tr><td style="font-weight:bold;vertical-align:top;">session_id</td><td style="vertical-align:top;">:</td><td><div>10.26.255.68-2caa475a-a747-434f-930e-43cf4a0b650f</div></td></tr><tr><td style="font-weight:bold;vertical-align:top;">session_id_name</td><td style="vertical-align:top;">:</td><td><div>session_id_ji163</div></td></tr><tr><td style="font-weight:bold;vertical-align:top;">session_locked</td><td style="vertical-align:top;">:</td><td><div>True</div></td></tr><tr><td style="font-weight:bold;vertical-align:top;">session_masterapp</td><td style="vertical-align:top;">:</td><td><div>ji163</div></td></tr><tr><td style="font-weight:bold;vertical-align:top;">session_new</td><td style="vertical-align:top;">:</td><td><div>False</div></td></tr><tr><td style="font-weight:bold;vertical-align:top;">session_storage_type</td><td style="vertical-align:top;">:</td><td><div>file</div></td></tr><tr><td style="font-weight:bold;vertical-align:top;">status</td><td style="vertical-align:top;">:</td><td><div>200</div></td></tr><tr><td style="font-weight:bold;vertical-align:top;">view</td><td style="vertical-align:top;">:</td><td><div>default/dashboard.html</div></td></tr></table></div>'
tRp174
sS'locals'
p175
(dp176
S'self'
p177
S'<DAL uri="sqlite://storage.sqlite">'
p178
sS'key'
p179
S"'ddashboardform0'"
p180
sssS'traceback'
p181
S'Traceback (most recent call last):\n  File "/home/w2p/web2py/gluon/restricted.py", line 219, in restricted\n    exec(ccode, environment)\n  File "/home/w2p/web2py/applications/ji163/controllers/default.py", line 1539, in <module>\n  File "/home/w2p/web2py/gluon/globals.py", line 414, in <lambda>\n    self._caller = lambda f: f()\n  File "/home/w2p/web2py/applications/ji163/controllers/default.py", line 405, in dashboard\n    dashboardform0 = SQLFORM(db.ddashboardform0, _class = \'main-search\', _id= \'idUnk0\' )\n  File "/home/w2p/.conda/envs/lic/lib/python2.7/site-packages/pydal/base.py", line 669, in __getattr__\n    return BasicStorage.__getattribute__(self, key)\nAttributeError: \'DAL\' object has no attribute \'ddashboardform0\'\n'
p182
s.