(dp1
S'output'
p2
S"<type 'exceptions.NameError'> name 'result' is not defined"
p3
sS'layer'
p4
S'/home/w2p/web2py/applications/ji103/views/default/index.html'
p5
sS'code'
p6
S'response.write(\'<!DOCTYPE html>\\n<html lang="en">\\n\\n  <head>\\n\\n    <meta charset="utf-8">\\n    <meta http-equiv="X-UA-Compatible" content="IE=edge">\\n    <meta name="viewport" content="width=device-width, initial-scale=1, shrink-to-fit=no">\\n    <meta name="description" content="">\\n    <meta name="author" content="">\\n\\n    <title>facew2p</title>\\n\\n    <!-- Bootstrap core CSS-->\\n    <link href="\', escape=False)\nresponse.write(URL(\'static\',\'template/vendor/bootstrap/css/bootstrap.min.css\'))\nresponse.write(\'" rel="stylesheet">\\n\\n    <!-- Custom fonts for this template-->\\n    <link href="\', escape=False)\nresponse.write(URL(\'static\',\'template/vendor/fontawesome-free/css/all.min.css\'))\nresponse.write(\'" rel="stylesheet" type="text/css">\\n\\n    <!-- Page level plugin CSS-->\\n    <link href="\', escape=False)\nresponse.write(URL(\'static\',\'template/vendor/datatables/dataTables.bootstrap4.css\'))\nresponse.write(\'" rel="stylesheet">\\n\\n    <!-- Custom styles for this template-->\\n    <link href="\', escape=False)\nresponse.write(URL(\'static\',\'template/css/sb-admin.css\'))\nresponse.write(\'" rel="stylesheet">\\n\\n  \\n\\n   <meta charset=\\\'utf-8\\\'>\\n   <link  rel="icon" type="image/x-icon" href="\', escape=False)\nresponse.write(URL(\'static\',\'images/favicon.ico\'))\nresponse.write(\'"  >\\n</head>\\n\\n  <body id="page-top">\\n\\n    <nav class="navbar navbar-expand navbar-dark bg-dark static-top">\\n\\n      <a class="navbar-brand mr-1" href="\', escape=False)\nresponse.write(URL(c=\'default\',f=\'index\'))\nresponse.write(\'">\', escape=False)\nresponse.write(DICT["aa289"])\nresponse.write(\'</a>\\n\\n      <button class="btn btn-link btn-sm text-white order-1 order-sm-0" id="sidebarToggle" href="#">\\n        <i class="fas fa-bars"></i>\\n      </button>\\n\\n      <!-- Navbar Search -->\\n      \\n\', escape=False)\nresponse.write(\'\\n\', escape=False)\nresponse.write(\'<script type="text/javascript"><!--\\n    // These variables are used by the web2py_ajax_init function in web2py_ajax.js (which is loaded below).\\n    \', escape=False)\nresponse.write(ASSIGNJS(\nw2p_ajax_confirm_message = T(\'Are you sure you want to delete this object?\'),\nw2p_ajax_disable_with_message = T(\'Working...\'),\nw2p_ajax_date_format = T(\'%Y-%m-%d\'),\nw2p_ajax_datetime_format = T(\'%Y-%m-%d %H:%M:%S\'),\najax_error_500 = T.M(\'An error occured, please [[reload %s]] the page\') % URL(args=request.args, vars=request.get_vars)\n))\nresponse.write(\'\\n    //--></script>\\n\', escape=False)\nresponse.files.insert(0,URL(\'static\',\'js/jquery.js\'))\nresponse.files.insert(1,URL(\'static\',\'css/calendar.css\'))\nresponse.files.insert(2,URL(\'static\',\'js/calendar.js\'))\nresponse.files.insert(3,URL(\'static\',\'js/web2py.js\'))\nresponse.include_meta()\nresponse.include_files()\nresponse.write(\'\\n\', escape=False)\nresponse.write(\'\\n\\n\', escape=False)\nresponse.write(indexform0.custom.begin)\nresponse.write(\'\\n\', escape=False)\nresponse.write(indexform0.custom.widget.f0)\nresponse.write(\'\\n\', escape=False)\nresponse.write(indexform0.custom.submit)\nresponse.write(\'\\n\', escape=False)\nresponse.write(indexform0.custom.end)\nresponse.write(\'\\n\\n<div  id=divID0 style="heigth:50%;margin 0;display:inline-flex;padding: 0 5px 2px 5px;background-color:#F0FFF0;color:black;border: 1px dashed red;" >\\n                   <small>\', escape=False)\nresponse.write(response.flash0 or \'\')\nresponse.write("</small>\\n</div>\\n\\n <script>\\n setTimeout(function(){\\n  if ($(\'#divID0\').length > 0) {\\n    $(\'#divID0\').remove();\\n  } \\n}, 15000)\\n </script>\\n", escape=False)\nresponse.write(\'\\n\\n\\n      <!-- Navbar -->\\n      <ul class="navbar-nav ml-auto ml-md-0">\\n        <li class="nav-item dropdown no-arrow mx-1">\\n          <a class="nav-link dropdown-toggle" href="#" id="alertsDropdown" role="button" data-toggle="dropdown" aria-haspopup="true" aria-expanded="false">\\n            <i class="fas fa-bell fa-fw"></i>\\n            <span class="badge badge-danger">\', escape=False)\nresponse.write(DICT["sx291"])\nresponse.write(\'</span>\\n          </a>\\n          <div class="dropdown-menu dropdown-menu-right" aria-labelledby="alertsDropdown">\\n            <a class="dropdown-item" href="#">\', escape=False)\nresponse.write(DICT["aa292"])\nresponse.write(\'</a>\\n            <a class="dropdown-item" href="#">\', escape=False)\nresponse.write(DICT["aa293"])\nresponse.write(\'</a>\\n            <div class="dropdown-divider"></div>\\n            <a class="dropdown-item" href="#">\', escape=False)\nresponse.write(DICT["aa294"])\nresponse.write(\'</a>\\n          </div>\\n        </li>\\n        <li class="nav-item dropdown no-arrow mx-1">\\n          <a class="nav-link dropdown-toggle" href="#" id="messagesDropdown" role="button" data-toggle="dropdown" aria-haspopup="true" aria-expanded="false">\\n            <i class="fas fa-envelope fa-fw"></i>\\n            <span class="badge badge-danger">\', escape=False)\nresponse.write(DICT["sx295"])\nresponse.write(\'</span>\\n          </a>\\n          <div class="dropdown-menu dropdown-menu-right" aria-labelledby="messagesDropdown">\\n            <a class="dropdown-item" href="#">\', escape=False)\nresponse.write(DICT["aa296"])\nresponse.write(\'</a>\\n            <a class="dropdown-item" href="#">\', escape=False)\nresponse.write(DICT["aa297"])\nresponse.write(\'</a>\\n            <div class="dropdown-divider"></div>\\n            <a class="dropdown-item" href="#">\', escape=False)\nresponse.write(DICT["aa298"])\nresponse.write(\'</a>\\n          </div>\\n        </li>\\n        <li class="nav-item dropdown no-arrow">\\n          <a class="nav-link dropdown-toggle" href="#" id="userDropdown" role="button" data-toggle="dropdown" aria-haspopup="true" aria-expanded="false">\\n            <i class="fas fa-user-circle fa-fw"></i>\\n          </a>\\n          <div class="dropdown-menu dropdown-menu-right" aria-labelledby="userDropdown">\\n            <a class="dropdown-item" href="#">\', escape=False)\nresponse.write(DICT["aa299"])\nresponse.write(\'</a>\\n            <a class="dropdown-item" href="#">\', escape=False)\nresponse.write(DICT["aa300"])\nresponse.write(\'</a>\\n            <div class="dropdown-divider"></div>\\n            <a class="dropdown-item" href="#" data-toggle="modal" data-target="#logoutModal">\', escape=False)\nresponse.write(DICT["aa301"])\nresponse.write(\'</a>\\n          </div>\\n        </li>\\n      </ul>\\n\\n    </nav>\\n\\n    <div id="wrapper">\\n\\n      <!-- Sidebar -->\\n      <ul class="sidebar navbar-nav">\\n        <li class="nav-item active">\\n          <a class="nav-link" href="\', escape=False)\nresponse.write(URL(c=\'default\',f=\'index\'))\nresponse.write(\'">\\n            <i class="fas fa-fw fa-tachometer-alt"></i>\\n            <span>\', escape=False)\nresponse.write(DICT["sp303"])\nresponse.write(\'</span>\\n          </a>\\n        </li>\\n        <li class="nav-item dropdown">\\n          <a class="nav-link dropdown-toggle" href="#" id="pagesDropdown" role="button" data-toggle="dropdown" aria-haspopup="true" aria-expanded="false">\\n            <i class="fas fa-fw fa-folder"></i>\\n            <span>\', escape=False)\nresponse.write(DICT["sp304"])\nresponse.write(\'</span>\\n          </a>\\n          <div class="dropdown-menu" aria-labelledby="pagesDropdown">\\n            <h6 class="dropdown-header">\', escape=False)\nresponse.write(DICT["hf305"])\nresponse.write(\'</h6>\\n            <a class="dropdown-item" href="\', escape=False)\nresponse.write(URL(c=\'default\',f=\'login\'))\nresponse.write(\'">\', escape=False)\nresponse.write(DICT["aa307"])\nresponse.write(\'</a>\\n            <a class="dropdown-item" href="\', escape=False)\nresponse.write(URL(c=\'default\',f=\'register\'))\nresponse.write(\'">\', escape=False)\nresponse.write(DICT["aa309"])\nresponse.write(\'</a>\\n            <a class="dropdown-item" href="\', escape=False)\nresponse.write(URL(c=\'default\',f=\'forgot_password\'))\nresponse.write(\'">\', escape=False)\nresponse.write(DICT["aa311"])\nresponse.write(\'</a>\\n            <div class="dropdown-divider"></div>\\n            <h6 class="dropdown-header">\', escape=False)\nresponse.write(DICT["hf312"])\nresponse.write(\'</h6>\\n            <a class="dropdown-item" href="\', escape=False)\nresponse.write(URL(c=\'default\',f=\'X404\'))\nresponse.write(\'">\', escape=False)\nresponse.write(DICT["aa314"])\nresponse.write(\'</a>\\n            <a class="dropdown-item" href="\', escape=False)\nresponse.write(URL(c=\'default\',f=\'blank\'))\nresponse.write(\'">\', escape=False)\nresponse.write(DICT["aa316"])\nresponse.write(\'</a>\\n          </div>\\n        </li>\\n        <li class="nav-item">\\n          <a class="nav-link" href="\', escape=False)\nresponse.write(URL(c=\'default\',f=\'charts\'))\nresponse.write(\'">\\n            <i class="fas fa-fw fa-chart-area"></i>\\n            <span>\', escape=False)\nresponse.write(DICT["sp318"])\nresponse.write(\'</span></a>\\n        </li>\\n        <li class="nav-item">\\n          <a class="nav-link" href="\', escape=False)\nresponse.write(URL(c=\'default\',f=\'tables\'))\nresponse.write(\'">\\n            <i class="fas fa-fw fa-table"></i>\\n            <span>\', escape=False)\nresponse.write(DICT["sp320"])\nresponse.write(\'</span></a>\\n        </li>\\n      </ul>\\n\\n      <div id="content-wrapper">\\n\\n        <div class="container-fluid">\\n\\n          <!-- Breadcrumbs-->\\n          <ol class="breadcrumb">\\n            <li class="breadcrumb-item">\\n              <a href="#">\', escape=False)\nresponse.write(DICT["aa321"])\nresponse.write(\'</a>\\n            </li>\\n            <li class="breadcrumb-item active">\', escape=False)\nresponse.write(DICT["lb322"])\nresponse.write(\'</li>\\n          </ol>\\n\\n          <!-- Icon Cards-->\\n          <div class="row">\\n            <div class="col-xl-3 col-sm-6 mb-3">\\n              <div class="card text-white bg-primary o-hidden h-100">\\n                <div class="card-body">\\n                  <div class="card-body-icon">\\n                    <i class="fas fa-fw fa-comments"></i>\\n                  </div>\\n                  <div class="mr-5">\', escape=False)\nresponse.write(DICT["di323"])\nresponse.write(\'</div>\\n                </div>\\n                <a class="card-footer text-white clearfix small z-1" href="#">\\n                  <span class="float-left">\', escape=False)\nresponse.write(DICT["sx324"])\nresponse.write(\'</span>\\n                  <span class="float-right">\\n                    <i class="fas fa-angle-right"></i>\\n                  </span>\\n                </a>\\n              </div>\\n            </div>\\n            <div class="col-xl-3 col-sm-6 mb-3">\\n              <div class="card text-white bg-warning o-hidden h-100">\\n                <div class="card-body">\\n                  <div class="card-body-icon">\\n                    <i class="fas fa-fw fa-list"></i>\\n                  </div>\\n                  <div class="mr-5">\', escape=False)\nresponse.write(DICT["di325"])\nresponse.write(\'</div>\\n                </div>\\n                <a class="card-footer text-white clearfix small z-1" href="#">\\n                  <span class="float-left">\', escape=False)\nresponse.write(DICT["sx326"])\nresponse.write(\'</span>\\n                  <span class="float-right">\\n                    <i class="fas fa-angle-right"></i>\\n                  </span>\\n                </a>\\n              </div>\\n            </div>\\n            <div class="col-xl-3 col-sm-6 mb-3">\\n              <div class="card text-white bg-success o-hidden h-100">\\n                <div class="card-body">\\n                  <div class="card-body-icon">\\n                    <i class="fas fa-fw fa-shopping-cart"></i>\\n                  </div>\\n                  <div class="mr-5">\', escape=False)\nresponse.write(DICT["di327"])\nresponse.write(\'</div>\\n                </div>\\n                <a class="card-footer text-white clearfix small z-1" href="#">\\n                  <span class="float-left">\', escape=False)\nresponse.write(DICT["sx328"])\nresponse.write(\'</span>\\n                  <span class="float-right">\\n                    <i class="fas fa-angle-right"></i>\\n                  </span>\\n                </a>\\n              </div>\\n            </div>\\n            <div class="col-xl-3 col-sm-6 mb-3">\\n              <div class="card text-white bg-danger o-hidden h-100">\\n                <div class="card-body">\\n                  <div class="card-body-icon">\\n                    <i class="fas fa-fw fa-life-ring"></i>\\n                  </div>\\n                  <div class="mr-5">\', escape=False)\nresponse.write(DICT["di329"])\nresponse.write(\'</div>\\n                </div>\\n                <a class="card-footer text-white clearfix small z-1" href="#">\\n                  <span class="float-left">\', escape=False)\nresponse.write(DICT["sx330"])\nresponse.write(\'</span>\\n                  <span class="float-right">\\n                    <i class="fas fa-angle-right"></i>\\n                  </span>\\n                </a>\\n              </div>\\n            </div>\\n          </div>\\n\\n          <!-- Area Chart Example-->\\n          <div class="card mb-3">\\n            <div class="card-header">\\n              <i class="fas fa-chart-area"></i>\\n              Area Chart Example</div>\\n            <div class="card-body">\\n              <canvas id="myAreaChart" width="100%" height="30"></canvas>\\n            </div>\\n            <div class="card-footer small text-muted">\', escape=False)\nresponse.write(DICT["di331"])\nresponse.write(\'</div>\\n          </div>\\n\\n          <!-- DataTables Example -->\\n          <div class="card mb-3">\\n            <div class="card-header">\\n              <i class="fas fa-table"></i>\\n              Data Table Example</div>\\n            <div class="card-body">\\n              <div class="table-responsive">\\n                <table class="table table-bordered" id="dataTable" width="100%" cellspacing="0">\\n                  \\n<thead>\\n<tr>\\n<th>Name</th>\\n<th>Position</th>\\n<th>Office</th>\\n<th>Age</th>\\n<th>Start date</th>\\n<th>Salary</th>\\n</thead>\\n</tr>\\n\\n<tbody>\\n\', escape=False)\nquery= db.indextable0.id > 0\nresponse.write(\'\\n\', escape=False)\nresults= db(query).select()\nresponse.write(\'\\n\', escape=False)\nif not None is results:\n    response.write(\'\\n\\n\', escape=False)\n    response.write(SQLTABLE(result, orderby=True, headers=\'labels\',truncate=200,  _class=\'table table-bordered\', _width="100%", _style="white-space:wrap"))\n    response.write(\'\\n\\n\', escape=False)\n    pass\nresponse.write(\'\\n\', escape=False)\npass\nresponse.write(\'\\n</tbody>\\n\\n                </table>\\n<div  id=divID15 style="heigth:50%;margin 0;display:inline-flex;padding: 0 5px 2px 5px;background-color:#F0FFF0;color:black;border: 1px dashed red;" >\\n                   <small>indextable0</small>\\n</div>\\n\\n <script>\\n setTimeout(function(){\\n  if ($(\\\'#divID15\\\').length > 0) {\\n    $(\\\'#divID15\\\').remove();\\n  } \\n}, 15000)\\n </script>\\n              </div>\\n            </div>\\n            <div class="card-footer small text-muted">\', escape=False)\nresponse.write(DICT["di389"])\nresponse.write(\'</div>\\n          </div>\\n\\n        </div>\\n        <!-- /.container-fluid -->\\n\\n        <!-- Sticky Footer -->\\n        <footer class="sticky-footer">\\n          <div class="container my-auto">\\n            <div class="copyright text-center my-auto">\\n              <span>\', escape=False)\nresponse.write(DICT["sp390"])\nresponse.write(\'</span>\\n            </div>\\n          </div>\\n        </footer>\\n\\n      </div>\\n      <!-- /.content-wrapper -->\\n\\n    </div>\\n    <!-- /#wrapper -->\\n\\n    <!-- Scroll to Top Button-->\\n    <a class="scroll-to-top rounded" href="#page-top">\\n      <i class="fas fa-angle-up"></i>\\n    </a>\\n\\n    <!-- Logout Modal-->\\n    <div class="modal fade" id="logoutModal" tabindex="-1" role="dialog" aria-labelledby="exampleModalLabel" aria-hidden="true">\\n      <div class="modal-dialog" role="document">\\n        <div class="modal-content">\\n          <div class="modal-header">\\n            <h5 class="modal-title" id="exampleModalLabel">\', escape=False)\nresponse.write(DICT["he391"])\nresponse.write(\'</h5>\\n            <button class="close" type="button" data-dismiss="modal" aria-label="Close">\\n              <span aria-hidden="true">\', escape=False)\nresponse.write(DICT["sx392"])\nresponse.write(\'</span>\\n            </button>\\n          </div>\\n          <div class="modal-body">\', escape=False)\nresponse.write(DICT["di393"])\nresponse.write(\'</div>\\n          <div class="modal-footer">\\n            <button class="btn btn-secondary" type="button" data-dismiss="modal">\', escape=False)\nresponse.write(DICT["bu394"])\nresponse.write(\'</button>\\n            <a class="btn btn-primary" href="\', escape=False)\nresponse.write(URL(c=\'default\',f=\'login\'))\nresponse.write(\'">\', escape=False)\nresponse.write(DICT["aa396"])\nresponse.write(\'</a>\\n          </div>\\n        </div>\\n      </div>\\n    </div>\\n\\n    <!-- Bootstrap core JavaScript-->\\n    <script src="\', escape=False)\nresponse.write(URL(\'static\',\'template/vendor/jquery/jquery.min.js\'))\nresponse.write(\'"></script>\\n    <script src="\', escape=False)\nresponse.write(URL(\'static\',\'template/vendor/bootstrap/js/bootstrap.bundle.min.js\'))\nresponse.write(\'"></script>\\n\\n    <!-- Core plugin JavaScript-->\\n    <script src="\', escape=False)\nresponse.write(URL(\'static\',\'template/vendor/jquery-easing/jquery.easing.min.js\'))\nresponse.write(\'"></script>\\n\\n    <!-- Page level plugin JavaScript-->\\n    <script src="\', escape=False)\nresponse.write(URL(\'static\',\'template/vendor/chart.js/Chart.min.js\'))\nresponse.write(\'"></script>\\n    <script src="\', escape=False)\nresponse.write(URL(\'static\',\'template/vendor/datatables/jquery.dataTables.js\'))\nresponse.write(\'"></script>\\n    <script src="\', escape=False)\nresponse.write(URL(\'static\',\'template/vendor/datatables/dataTables.bootstrap4.js\'))\nresponse.write(\'"></script>\\n\\n    <!-- Custom scripts for all pages-->\\n    <script src="\', escape=False)\nresponse.write(URL(\'static\',\'template/js/sb-admin.min.js\'))\nresponse.write(\'"></script>\\n\\n    <!-- Demo scripts for this page-->\\n    <script src="\', escape=False)\nresponse.write(URL(\'static\',\'template/js/demo/datatables-demo.js\'))\nresponse.write(\'"></script>\\n    <script src="\', escape=False)\nresponse.write(URL(\'static\',\'template/js/demo/chart-area-demo.js\'))\nresponse.write(\'"></script>\\n\\n  </body>\\n\\n</html>\\n\', escape=False)'
p7
sS'snapshot'
p8
(dp9
S'exception'
p10
(dp11
S'__getslice__'
p12
S"<method-wrapper '__getslice__' of exceptions.NameError object>"
p13
sS'__str__'
p14
S"<method-wrapper '__str__' of exceptions.NameError object>"
p15
sS'__reduce__'
p16
S'<built-in method __reduce__ of exceptions.NameError object>'
p17
sS'__dict__'
p18
S'{}'
p19
sS'message'
p20
S'"name \'result\' is not defined"'
p21
sS'__sizeof__'
p22
S'<built-in method __sizeof__ of exceptions.NameError object>'
p23
sS'__init__'
p24
S"<method-wrapper '__init__' of exceptions.NameError object>"
p25
sS'__setattr__'
p26
S"<method-wrapper '__setattr__' of exceptions.NameError object>"
p27
sS'__reduce_ex__'
p28
S'<built-in method __reduce_ex__ of exceptions.NameError object>'
p29
sS'__new__'
p30
S'<built-in method __new__ of type object>'
p31
sS'__format__'
p32
S'<built-in method __format__ of exceptions.NameError object>'
p33
sS'__class__'
p34
S"<type 'exceptions.NameError'>"
p35
sS'__doc__'
p36
S"'Name not found globally.'"
p37
sS'__getitem__'
p38
S"<method-wrapper '__getitem__' of exceptions.NameError object>"
p39
sS'__setstate__'
p40
S'<built-in method __setstate__ of exceptions.NameError object>'
p41
sS'__getattribute__'
p42
S"<method-wrapper '__getattribute__' of exceptions.NameError object>"
p43
sS'args'
p44
S'("name \'result\' is not defined",)'
p45
sS'__subclasshook__'
p46
S'<built-in method __subclasshook__ of type object>'
p47
sS'__unicode__'
p48
S'<built-in method __unicode__ of exceptions.NameError object>'
p49
sS'__delattr__'
p50
S"<method-wrapper '__delattr__' of exceptions.NameError object>"
p51
sS'__repr__'
p52
S"<method-wrapper '__repr__' of exceptions.NameError object>"
p53
sS'__hash__'
p54
S"<method-wrapper '__hash__' of exceptions.NameError object>"
p55
ssS'evalue'
p56
S"name 'result' is not defined"
p57
sS'request'
p58
cgluon.html
XML_unpickle
p59
(S'suY\x00\x00<div><table><tr><td style="font-weight:bold;vertical-align:top;">ajax</td><td style="vertical-align:top;">:</td><td><div>False</div></td></tr><tr><td style="font-weight:bold;vertical-align:top;">application</td><td style="vertical-align:top;">:</td><td><div>ji103</div></td></tr><tr><td style="font-weight:bold;vertical-align:top;">args</td><td style="vertical-align:top;">:</td><td><div><table></table></div></td></tr><tr><td style="font-weight:bold;vertical-align:top;">cid</td><td style="vertical-align:top;">:</td><td><div>None</div></td></tr><tr><td style="font-weight:bold;vertical-align:top;">client</td><td style="vertical-align:top;">:</td><td><div>10.26.255.68</div></td></tr><tr><td style="font-weight:bold;vertical-align:top;">controller</td><td style="vertical-align:top;">:</td><td><div>default</div></td></tr><tr><td style="font-weight:bold;vertical-align:top;">cookies</td><td style="vertical-align:top;">:</td><td><div><table><tr><td style="font-weight:bold;vertical-align:top;">session_id_newlic</td><td style="vertical-align:top;">:</td><td><div>10.26.255.68-6f6cb123-8197-4e07-a6ce-b7d2a7b5da53<table><tr><td style="font-weight:bold;vertical-align:top;">comment</td><td style="vertical-align:top;">:</td><td><div></div></td></tr><tr><td style="font-weight:bold;vertical-align:top;">domain</td><td style="vertical-align:top;">:</td><td><div></div></td></tr><tr><td style="font-weight:bold;vertical-align:top;">expires</td><td style="vertical-align:top;">:</td><td><div></div></td></tr><tr><td style="font-weight:bold;vertical-align:top;">httponly</td><td style="vertical-align:top;">:</td><td><div></div></td></tr><tr><td style="font-weight:bold;vertical-align:top;">max-age</td><td style="vertical-align:top;">:</td><td><div></div></td></tr><tr><td style="font-weight:bold;vertical-align:top;">path</td><td style="vertical-align:top;">:</td><td><div></div></td></tr><tr><td style="font-weight:bold;vertical-align:top;">secure</td><td style="vertical-align:top;">:</td><td><div></div></td></tr><tr><td style="font-weight:bold;vertical-align:top;">version</td><td style="vertical-align:top;">:</td><td><div></div></td></tr></table></div></td></tr><tr><td style="font-weight:bold;vertical-align:top;">session_id_welcome</td><td style="vertical-align:top;">:</td><td><div>10.26.255.68-2b07975b-c6f1-4ec9-af42-76e90e3a8b38<table><tr><td style="font-weight:bold;vertical-align:top;">comment</td><td style="vertical-align:top;">:</td><td><div></div></td></tr><tr><td style="font-weight:bold;vertical-align:top;">domain</td><td style="vertical-align:top;">:</td><td><div></div></td></tr><tr><td style="font-weight:bold;vertical-align:top;">expires</td><td style="vertical-align:top;">:</td><td><div></div></td></tr><tr><td style="font-weight:bold;vertical-align:top;">httponly</td><td style="vertical-align:top;">:</td><td><div></div></td></tr><tr><td style="font-weight:bold;vertical-align:top;">max-age</td><td style="vertical-align:top;">:</td><td><div></div></td></tr><tr><td style="font-weight:bold;vertical-align:top;">path</td><td style="vertical-align:top;">:</td><td><div></div></td></tr><tr><td style="font-weight:bold;vertical-align:top;">secure</td><td style="vertical-align:top;">:</td><td><div></div></td></tr><tr><td style="font-weight:bold;vertical-align:top;">version</td><td style="vertical-align:top;">:</td><td><div></div></td></tr></table></div></td></tr></table></div></td></tr><tr><td style="font-weight:bold;vertical-align:top;">env</td><td style="vertical-align:top;">:</td><td><div><table><tr><td style="font-weight:bold;vertical-align:top;">HTTP_ACCEPT</td><td style="vertical-align:top;">:</td><td><div>text/html,application/xhtml+xml,application/xml;q=0.9,*/*;q=0.8</div></td></tr><tr><td style="font-weight:bold;vertical-align:top;">HTTP_ACCEPT_ENCODING</td><td style="vertical-align:top;">:</td><td><div>gzip, deflate, br</div></td></tr><tr><td style="font-weight:bold;vertical-align:top;">HTTP_ACCEPT_LANGUAGE</td><td style="vertical-align:top;">:</td><td><div>ru-RU,ru;q=0.8,en-US;q=0.5,en;q=0.3</div></td></tr><tr><td style="font-weight:bold;vertical-align:top;">HTTP_CONNECTION</td><td style="vertical-align:top;">:</td><td><div>close</div></td></tr><tr><td style="font-weight:bold;vertical-align:top;">HTTP_COOKIE</td><td style="vertical-align:top;">:</td><td><div>session_id_welcome=10.26.255.68-2b07975b-c6f1-4ec9-af42-76e90e3a8b38; session_id_newlic=10.26.255.68-6f6cb123-8197-4e07-a6ce-b7d2a7b5da53</div></td></tr><tr><td style="font-weight:bold;vertical-align:top;">HTTP_HOST</td><td style="vertical-align:top;">:</td><td><div>sun.minfindnr.ru</div></td></tr><tr><td style="font-weight:bold;vertical-align:top;">HTTP_UPGRADE_INSECURE_REQUESTS</td><td style="vertical-align:top;">:</td><td><div>1</div></td></tr><tr><td style="font-weight:bold;vertical-align:top;">HTTP_USER_AGENT</td><td style="vertical-align:top;">:</td><td><div>Mozilla/5.0 (Windows NT 6.1; rv:66.0) Gecko/20100101 Firefox/66.0</div></td></tr><tr><td style="font-weight:bold;vertical-align:top;">HTTP_X_FORWARDED_BY</td><td style="vertical-align:top;">:</td><td><div>92.242.125.188:443</div></td></tr><tr><td style="font-weight:bold;vertical-align:top;">HTTP_X_FORWARDED_FOR</td><td style="vertical-align:top;">:</td><td><div>10.26.255.68</div></td></tr><tr><td style="font-weight:bold;vertical-align:top;">HTTP_X_FORWARDED_PROTO</td><td style="vertical-align:top;">:</td><td><div>https</div></td></tr><tr><td style="font-weight:bold;vertical-align:top;">HTTP_X_FORWARDED_SSL</td><td style="vertical-align:top;">:</td><td><div>on</div></td></tr><tr><td style="font-weight:bold;vertical-align:top;">HTTP_X_REAL_IP</td><td style="vertical-align:top;">:</td><td><div>10.26.255.68</div></td></tr><tr><td style="font-weight:bold;vertical-align:top;">PATH_INFO</td><td style="vertical-align:top;">:</td><td><div>/ji103</div></td></tr><tr><td style="font-weight:bold;vertical-align:top;">QUERY_STRING</td><td style="vertical-align:top;">:</td><td><div></div></td></tr><tr><td style="font-weight:bold;vertical-align:top;">RAW_URI</td><td style="vertical-align:top;">:</td><td><div>/ji103</div></td></tr><tr><td style="font-weight:bold;vertical-align:top;">REMOTE_ADDR</td><td style="vertical-align:top;">:</td><td><div></div></td></tr><tr><td style="font-weight:bold;vertical-align:top;">REQUEST_METHOD</td><td style="vertical-align:top;">:</td><td><div>GET</div></td></tr><tr><td style="font-weight:bold;vertical-align:top;">SCRIPT_NAME</td><td style="vertical-align:top;">:</td><td><div></div></td></tr><tr><td style="font-weight:bold;vertical-align:top;">SERVER_NAME</td><td style="vertical-align:top;">:</td><td><div>sun.minfindnr.ru</div></td></tr><tr><td style="font-weight:bold;vertical-align:top;">SERVER_PORT</td><td style="vertical-align:top;">:</td><td><div>443</div></td></tr><tr><td style="font-weight:bold;vertical-align:top;">SERVER_PROTOCOL</td><td style="vertical-align:top;">:</td><td><div>HTTP/1.0</div></td></tr><tr><td style="font-weight:bold;vertical-align:top;">SERVER_SOFTWARE</td><td style="vertical-align:top;">:</td><td><div>gunicorn/19.1.0</div></td></tr><tr><td style="font-weight:bold;vertical-align:top;">app_folders</td><td style="vertical-align:top;">:</td><td><div>set([&#x27;/home/w2p/web2py/applications/ji103/&#x27;, &#x27;/home/w2p/web2py/applications/ji142/&#x27;, &#x27;/home/w2p/web2py/applications/ji150/&#x27;, &#x27;/home/w2p/web2py/applications/ji120/&#x27;, &#x27;/home/w2p/web2py/applications/ji154/&#x27;, &#x27;/home/w2p/web2py/applications/ji156/&#x27;, &#x27;/home/w2p/web2py/applications/ji152/&#x27;, &#x27;/home/w2p/web2py/applications/ji151/&#x27;, &#x27;/home/w2p/web2py/applications/dmlic/&#x27;, &#x27;/home/w2p/web2py/applications/welcome/&#x27;, &#x27;/home/w2p/web2py/applications/newlic/&#x27;, &#x27;/home/w2p/web2py/applications/ji195/&#x27;, &#x27;/home/w2p/web2py/applications/ji162/&#x27;, &#x27;/home/w2p/web2py/applications/ji191/&#x27;, &#x27;/home/w2p/web2py/applications/lic/&#x27;, &#x27;/home/w2p/web2py/applications/ji134/&#x27;, &#x27;/home/w2p/web2py/applications/ji155/&#x27;, &#x27;/home/w2p/web2py/applications/ji147/&#x27;, &#x27;/home/w2p/web2py/applications/av031/&#x27;, &#x27;/home/w2p/web2py/applications/av03/&#x27;, &#x27;/home/w2p/web2py/applications/ji104/&#x27;, &#x27;/home/w2p/web2py/applications/ji141/&#x27;, &#x27;/home/w2p/web2py/applications/ji132/&#x27;, &#x27;/home/w2p/web2py/applications/ji163/&#x27;, &#x27;/home/w2p/web2py/applications/ji194/&#x27;, &#x27;/home/w2p/web2py/applications/ji190/&#x27;, &#x27;/home/w2p/web2py/applications/up1/&#x27;, &#x27;/home/w2p/web2py/applications/ji192/&#x27;, &#x27;/home/w2p/web2py/applications/ji161/&#x27;, &#x27;/home/w2p/web2py/applications/ji119/&#x27;, &#x27;/home/w2p/web2py/applications/ji109/&#x27;])</div></td></tr><tr><td style="font-weight:bold;vertical-align:top;">applications_parent</td><td style="vertical-align:top;">:</td><td><div>/home/w2p/web2py</div></td></tr><tr><td style="font-weight:bold;vertical-align:top;">db_sessions</td><td style="vertical-align:top;">:</td><td><div>set([])</div></td></tr><tr><td style="font-weight:bold;vertical-align:top;">debugging</td><td style="vertical-align:top;">:</td><td><div>False</div></td></tr><tr><td style="font-weight:bold;vertical-align:top;">gluon_parent</td><td style="vertical-align:top;">:</td><td><div>/home/w2p/web2py</div></td></tr><tr><td style="font-weight:bold;vertical-align:top;">gunicorn.socket</td><td style="vertical-align:top;">:</td><td><div>&lt;socket._socketobject object at 0x7f4d6e496910&gt;</div></td></tr><tr><td style="font-weight:bold;vertical-align:top;">gunicorn_socket</td><td style="vertical-align:top;">:</td><td><div>&lt;socket._socketobject object at 0x7f4d6e496910&gt;</div></td></tr><tr><td style="font-weight:bold;vertical-align:top;">http_accept</td><td style="vertical-align:top;">:</td><td><div>text/html,application/xhtml+xml,application/xml;q=0.9,*/*;q=0.8</div></td></tr><tr><td style="font-weight:bold;vertical-align:top;">http_accept_encoding</td><td style="vertical-align:top;">:</td><td><div>gzip, deflate, br</div></td></tr><tr><td style="font-weight:bold;vertical-align:top;">http_accept_language</td><td style="vertical-align:top;">:</td><td><div>ru-RU,ru;q=0.8,en-US;q=0.5,en;q=0.3</div></td></tr><tr><td style="font-weight:bold;vertical-align:top;">http_connection</td><td style="vertical-align:top;">:</td><td><div>close</div></td></tr><tr><td style="font-weight:bold;vertical-align:top;">http_cookie</td><td style="vertical-align:top;">:</td><td><div>session_id_welcome=10.26.255.68-2b07975b-c6f1-4ec9-af42-76e90e3a8b38; session_id_newlic=10.26.255.68-6f6cb123-8197-4e07-a6ce-b7d2a7b5da53</div></td></tr><tr><td style="font-weight:bold;vertical-align:top;">http_host</td><td style="vertical-align:top;">:</td><td><div>sun.minfindnr.ru</div></td></tr><tr><td style="font-weight:bold;vertical-align:top;">http_upgrade_insecure_requests</td><td style="vertical-align:top;">:</td><td><div>1</div></td></tr><tr><td style="font-weight:bold;vertical-align:top;">http_user_agent</td><td style="vertical-align:top;">:</td><td><div>Mozilla/5.0 (Windows NT 6.1; rv:66.0) Gecko/20100101 Firefox/66.0</div></td></tr><tr><td style="font-weight:bold;vertical-align:top;">http_x_forwarded_by</td><td style="vertical-align:top;">:</td><td><div>92.242.125.188:443</div></td></tr><tr><td style="font-weight:bold;vertical-align:top;">http_x_forwarded_for</td><td style="vertical-align:top;">:</td><td><div>10.26.255.68</div></td></tr><tr><td style="font-weight:bold;vertical-align:top;">http_x_forwarded_proto</td><td style="vertical-align:top;">:</td><td><div>https</div></td></tr><tr><td style="font-weight:bold;vertical-align:top;">http_x_forwarded_ssl</td><td style="vertical-align:top;">:</td><td><div>on</div></td></tr><tr><td style="font-weight:bold;vertical-align:top;">http_x_real_ip</td><td style="vertical-align:top;">:</td><td><div>10.26.255.68</div></td></tr><tr><td style="font-weight:bold;vertical-align:top;">is_jython</td><td style="vertical-align:top;">:</td><td><div>False</div></td></tr><tr><td style="font-weight:bold;vertical-align:top;">is_py2</td><td style="vertical-align:top;">:</td><td><div>True</div></td></tr><tr><td style="font-weight:bold;vertical-align:top;">is_pypy</td><td style="vertical-align:top;">:</td><td><div>False</div></td></tr><tr><td style="font-weight:bold;vertical-align:top;">is_source</td><td style="vertical-align:top;">:</td><td><div>True</div></td></tr><tr><td style="font-weight:bold;vertical-align:top;">local_hosts</td><td style="vertical-align:top;">:</td><td><div><table><tr><td><div>sun.minfindnr.ru</div></td></tr><tr><td><div>::1</div></td></tr><tr><td><div>92.242.125.188</div></td></tr><tr><td><div>::ffff:127.0.0.1</div></td></tr><tr><td><div>127.0.0.1</div></td></tr></table></div></td></tr><tr><td style="font-weight:bold;vertical-align:top;">path_info</td><td style="vertical-align:top;">:</td><td><div>/ji103</div></td></tr><tr><td style="font-weight:bold;vertical-align:top;">query_string</td><td style="vertical-align:top;">:</td><td><div></div></td></tr><tr><td style="font-weight:bold;vertical-align:top;">raw_uri</td><td style="vertical-align:top;">:</td><td><div>/ji103</div></td></tr><tr><td style="font-weight:bold;vertical-align:top;">remote_addr</td><td style="vertical-align:top;">:</td><td><div></div></td></tr><tr><td style="font-weight:bold;vertical-align:top;">request_method</td><td style="vertical-align:top;">:</td><td><div>GET</div></td></tr><tr><td style="font-weight:bold;vertical-align:top;">request_uri</td><td style="vertical-align:top;">:</td><td><div>/ji103</div></td></tr><tr><td style="font-weight:bold;vertical-align:top;">script_name</td><td style="vertical-align:top;">:</td><td><div></div></td></tr><tr><td style="font-weight:bold;vertical-align:top;">server_name</td><td style="vertical-align:top;">:</td><td><div>sun.minfindnr.ru</div></td></tr><tr><td style="font-weight:bold;vertical-align:top;">server_port</td><td style="vertical-align:top;">:</td><td><div>443</div></td></tr><tr><td style="font-weight:bold;vertical-align:top;">server_protocol</td><td style="vertical-align:top;">:</td><td><div>HTTP/1.0</div></td></tr><tr><td style="font-weight:bold;vertical-align:top;">server_software</td><td style="vertical-align:top;">:</td><td><div>gunicorn/19.1.0</div></td></tr><tr><td style="font-weight:bold;vertical-align:top;">web2py_path</td><td style="vertical-align:top;">:</td><td><div>/home/w2p/web2py</div></td></tr><tr><td style="font-weight:bold;vertical-align:top;">web2py_version</td><td style="vertical-align:top;">:</td><td><div>2.15.4-stable+timestamp.2017.09.02.04.02.22</div></td></tr><tr><td style="font-weight:bold;vertical-align:top;">wsgi.errors</td><td style="vertical-align:top;">:</td><td><div>&lt;gunicorn.http.wsgi.WSGIErrorsWraper object at 0x7f4d6c51fcd0&gt;</div></td></tr><tr><td style="font-weight:bold;vertical-align:top;">wsgi.file_wrapper</td><td style="vertical-align:top;">:</td><td><div>&lt;class &#x27;gunicorn.http.wsgi.FileWrapper&#x27;&gt;</div></td></tr><tr><td style="font-weight:bold;vertical-align:top;">wsgi.input</td><td style="vertical-align:top;">:</td><td><div>&lt;gunicorn.http.body.Body object at 0x7f4d6c51fe50&gt;</div></td></tr><tr><td style="font-weight:bold;vertical-align:top;">wsgi.multiprocess</td><td style="vertical-align:top;">:</td><td><div>True</div></td></tr><tr><td style="font-weight:bold;vertical-align:top;">wsgi.multithread</td><td style="vertical-align:top;">:</td><td><div>False</div></td></tr><tr><td style="font-weight:bold;vertical-align:top;">wsgi.run_once</td><td style="vertical-align:top;">:</td><td><div>False</div></td></tr><tr><td style="font-weight:bold;vertical-align:top;">wsgi.url_scheme</td><td style="vertical-align:top;">:</td><td><div>https</div></td></tr><tr><td style="font-weight:bold;vertical-align:top;">wsgi.version</td><td style="vertical-align:top;">:</td><td><div><table><tr><td><div>1</div></td></tr><tr><td><div>0</div></td></tr></table></div></td></tr><tr><td style="font-weight:bold;vertical-align:top;">wsgi_errors</td><td style="vertical-align:top;">:</td><td><div>&lt;gunicorn.http.wsgi.WSGIErrorsWraper object at 0x7f4d6c51fcd0&gt;</div></td></tr><tr><td style="font-weight:bold;vertical-align:top;">wsgi_file_wrapper</td><td style="vertical-align:top;">:</td><td><div>&lt;class &#x27;gunicorn.http.wsgi.FileWrapper&#x27;&gt;</div></td></tr><tr><td style="font-weight:bold;vertical-align:top;">wsgi_input</td><td style="vertical-align:top;">:</td><td><div>&lt;gunicorn.http.body.Body object at 0x7f4d6c51fe50&gt;</div></td></tr><tr><td style="font-weight:bold;vertical-align:top;">wsgi_multiprocess</td><td style="vertical-align:top;">:</td><td><div>True</div></td></tr><tr><td style="font-weight:bold;vertical-align:top;">wsgi_multithread</td><td style="vertical-align:top;">:</td><td><div>False</div></td></tr><tr><td style="font-weight:bold;vertical-align:top;">wsgi_run_once</td><td style="vertical-align:top;">:</td><td><div>False</div></td></tr><tr><td style="font-weight:bold;vertical-align:top;">wsgi_url_scheme</td><td style="vertical-align:top;">:</td><td><div>https</div></td></tr><tr><td style="font-weight:bold;vertical-align:top;">wsgi_version</td><td style="vertical-align:top;">:</td><td><div><table><tr><td><div>1</div></td></tr><tr><td><div>0</div></td></tr></table></div></td></tr></table></div></td></tr><tr><td style="font-weight:bold;vertical-align:top;">extension</td><td style="vertical-align:top;">:</td><td><div>html</div></td></tr><tr><td style="font-weight:bold;vertical-align:top;">folder</td><td style="vertical-align:top;">:</td><td><div>/home/w2p/web2py/applications/ji103/</div></td></tr><tr><td style="font-weight:bold;vertical-align:top;">function</td><td style="vertical-align:top;">:</td><td><div>index</div></td></tr><tr><td style="font-weight:bold;vertical-align:top;">global_settings</td><td style="vertical-align:top;">:</td><td><div><table><tr><td style="font-weight:bold;vertical-align:top;">app_folders</td><td style="vertical-align:top;">:</td><td><div>set([&#x27;/home/w2p/web2py/applications/ji103/&#x27;, &#x27;/home/w2p/web2py/applications/ji142/&#x27;, &#x27;/home/w2p/web2py/applications/ji150/&#x27;, &#x27;/home/w2p/web2py/applications/ji120/&#x27;, &#x27;/home/w2p/web2py/applications/ji154/&#x27;, &#x27;/home/w2p/web2py/applications/ji156/&#x27;, &#x27;/home/w2p/web2py/applications/ji152/&#x27;, &#x27;/home/w2p/web2py/applications/ji151/&#x27;, &#x27;/home/w2p/web2py/applications/dmlic/&#x27;, &#x27;/home/w2p/web2py/applications/welcome/&#x27;, &#x27;/home/w2p/web2py/applications/newlic/&#x27;, &#x27;/home/w2p/web2py/applications/ji195/&#x27;, &#x27;/home/w2p/web2py/applications/ji162/&#x27;, &#x27;/home/w2p/web2py/applications/ji191/&#x27;, &#x27;/home/w2p/web2py/applications/lic/&#x27;, &#x27;/home/w2p/web2py/applications/ji134/&#x27;, &#x27;/home/w2p/web2py/applications/ji155/&#x27;, &#x27;/home/w2p/web2py/applications/ji147/&#x27;, &#x27;/home/w2p/web2py/applications/av031/&#x27;, &#x27;/home/w2p/web2py/applications/av03/&#x27;, &#x27;/home/w2p/web2py/applications/ji104/&#x27;, &#x27;/home/w2p/web2py/applications/ji141/&#x27;, &#x27;/home/w2p/web2py/applications/ji132/&#x27;, &#x27;/home/w2p/web2py/applications/ji163/&#x27;, &#x27;/home/w2p/web2py/applications/ji194/&#x27;, &#x27;/home/w2p/web2py/applications/ji190/&#x27;, &#x27;/home/w2p/web2py/applications/up1/&#x27;, &#x27;/home/w2p/web2py/applications/ji192/&#x27;, &#x27;/home/w2p/web2py/applications/ji161/&#x27;, &#x27;/home/w2p/web2py/applications/ji119/&#x27;, &#x27;/home/w2p/web2py/applications/ji109/&#x27;])</div></td></tr><tr><td style="font-weight:bold;vertical-align:top;">applications_parent</td><td style="vertical-align:top;">:</td><td><div>/home/w2p/web2py</div></td></tr><tr><td style="font-weight:bold;vertical-align:top;">db_sessions</td><td style="vertical-align:top;">:</td><td><div>set([])</div></td></tr><tr><td style="font-weight:bold;vertical-align:top;">debugging</td><td style="vertical-align:top;">:</td><td><div>False</div></td></tr><tr><td style="font-weight:bold;vertical-align:top;">gluon_parent</td><td style="vertical-align:top;">:</td><td><div>/home/w2p/web2py</div></td></tr><tr><td style="font-weight:bold;vertical-align:top;">is_jython</td><td style="vertical-align:top;">:</td><td><div>False</div></td></tr><tr><td style="font-weight:bold;vertical-align:top;">is_py2</td><td style="vertical-align:top;">:</td><td><div>True</div></td></tr><tr><td style="font-weight:bold;vertical-align:top;">is_pypy</td><td style="vertical-align:top;">:</td><td><div>False</div></td></tr><tr><td style="font-weight:bold;vertical-align:top;">is_source</td><td style="vertical-align:top;">:</td><td><div>True</div></td></tr><tr><td style="font-weight:bold;vertical-align:top;">local_hosts</td><td style="vertical-align:top;">:</td><td><div><table><tr><td><div>sun.minfindnr.ru</div></td></tr><tr><td><div>::1</div></td></tr><tr><td><div>92.242.125.188</div></td></tr><tr><td><div>::ffff:127.0.0.1</div></td></tr><tr><td><div>127.0.0.1</div></td></tr></table></div></td></tr><tr><td style="font-weight:bold;vertical-align:top;">web2py_version</td><td style="vertical-align:top;">:</td><td><div>2.15.4-stable+timestamp.2017.09.02.04.02.22</div></td></tr></table></div></td></tr><tr><td style="font-weight:bold;vertical-align:top;">is_https</td><td style="vertical-align:top;">:</td><td><div>True</div></td></tr><tr><td style="font-weight:bold;vertical-align:top;">is_local</td><td style="vertical-align:top;">:</td><td><div>False</div></td></tr><tr><td style="font-weight:bold;vertical-align:top;">is_restful</td><td style="vertical-align:top;">:</td><td><div>False</div></td></tr><tr><td style="font-weight:bold;vertical-align:top;">is_scheduler</td><td style="vertical-align:top;">:</td><td><div>False</div></td></tr><tr><td style="font-weight:bold;vertical-align:top;">is_shell</td><td style="vertical-align:top;">:</td><td><div>False</div></td></tr><tr><td style="font-weight:bold;vertical-align:top;">now</td><td style="vertical-align:top;">:</td><td><div>datetime.datetime(2019, 5, 6, 9, 7, 31, 731120)</div></td></tr><tr><td style="font-weight:bold;vertical-align:top;">raw_args</td><td style="vertical-align:top;">:</td><td><div></div></td></tr><tr><td style="font-weight:bold;vertical-align:top;">raw_extension</td><td style="vertical-align:top;">:</td><td><div>None</div></td></tr><tr><td style="font-weight:bold;vertical-align:top;">url</td><td style="vertical-align:top;">:</td><td><div>/ji103</div></td></tr><tr><td style="font-weight:bold;vertical-align:top;">utcnow</td><td style="vertical-align:top;">:</td><td><div>datetime.datetime(2019, 5, 6, 6, 7, 31, 731129)</div></td></tr><tr><td style="font-weight:bold;vertical-align:top;">wsgi</td><td style="vertical-align:top;">:</td><td><div>&lt;gluon.main.LazyWSGI object at 0x7f4d6c4f5090&gt;</div></td></tr></table></div>'
tRp60
sS'frames'
p61
(lp62
(dp63
S'file'
p64
S'/home/w2p/web2py/gluon/restricted.py'
p65
sS'dump'
p66
(dp67
S'environment'
p68
S"{'A': <class 'gluon.html.A'>, 'ANY_OF': <class 'gluon.validators.ANY_OF'>, 'ASSIGNJS': <function ASSIGNJS>, 'AppConfig': <function AppConfig>, 'Auth': <class 'gluon.tools.Auth'>, 'B': <class 'gluon.html.B'>, 'BEAUTIFY': <class 'gluon.html.BEAUTIFY'>, 'BODY': <class 'gluon.html.BODY'>, 'BR': <class 'gluon.html.BR'>, 'BUTTON': <class 'gluon.html.BUTTON'>, ...}"
p69
sS'ccode'
p70
S'<code object <module> at 0x7f4d6df306b0, file "/...ications/ji103/views/default/index.html", line 1>'
p71
ssS'lnum'
p72
I219
sS'lines'
p73
(dp74
I214
S'    if environment is None:'
p75
sI215
S'        environment = {}'
p76
sI216
S"    environment['__file__'] = layer"
p77
sI217
S"    environment['__name__'] = '__restricted__'"
p78
sI218
S'    try:'
p79
sI219
S'        exec(ccode, environment)'
p80
sI220
S'    except HTTP:'
p81
sI221
S'        raise'
p82
sI222
S'    except RestrictedError:'
p83
sI223
S'        # do not encapsulate (obfuscate) the original RestrictedError'
p84
ssS'call'
p85
S'(ccode=<code object <module> at 0x7f4d6df306b0, file "/...ications/ji103/views/default/index.html", line 1>, environment={\'A\': <class \'gluon.html.A\'>, \'ANY_OF\': <class \'gluon.validators.ANY_OF\'>, \'ASSIGNJS\': <function ASSIGNJS>, \'AppConfig\': <function AppConfig>, \'Auth\': <class \'gluon.tools.Auth\'>, \'B\': <class \'gluon.html.B\'>, \'BEAUTIFY\': <class \'gluon.html.BEAUTIFY\'>, \'BODY\': <class \'gluon.html.BODY\'>, \'BR\': <class \'gluon.html.BR\'>, \'BUTTON\': <class \'gluon.html.BUTTON\'>, ...}, layer=\'/home/w2p/web2py/applications/ji103/views/default/index.html\', scode=\'response.write(\\\'<!DOCTYPE html>\\\\n<html lang="en"...script>\\\\n\\\\n  </body>\\\\n\\\\n</html>\\\\n\\\', escape=False)\')'
p86
sS'func'
p87
S'restricted'
p88
sa(dp89
g64
S'/home/w2p/web2py/applications/ji103/views/default/index.html'
p90
sg66
(dp91
sg72
I133
sg73
(dp92
I128
S"response.write('\\n', escape=False)"
p93
sI129
S'results= db(query).select()'
p94
sI130
S"response.write('\\n', escape=False)"
p95
sI131
S'if not None is results:'
p96
sI132
S"    response.write('\\n\\n', escape=False)"
p97
sI133
S'    response.write(SQLTABLE(result, orderby=True, headers=\'labels\',truncate=200,  _class=\'table table-bordered\', _width="100%", _style="white-space:wrap"))'
p98
sI134
S"    response.write('\\n\\n', escape=False)"
p99
sI135
S'    pass'
p100
sI136
S"response.write('\\n', escape=False)"
p101
sI137
S'pass'
p102
sI138
S'response.write(\'\\n</tbody>\\n\\n                </table>\\n<div  id=divID15 style="heigth:50%;margin 0;display:inline-flex;padding: 0 5px 2px 5px;background-color:#F0FFF0;color:black;border: 1px dashed red;" >\\n                   <small>indextable0</small>\\n</div>\\n\\n <script>\\n setTimeout(function(){\\n  if ($(\\\'#divID15\\\').length > 0) {\\n    $(\\\'#divID15\\\').remove();\\n  } \\n}, 15000)\\n </script>\\n              </div>\\n            </div>\\n            <div class="card-footer small text-muted">\', escape=False)'
p103
sI139
S'response.write(DICT["di389"])'
p104
sI140
S'response.write(\'</div>\\n          </div>\\n\\n        </div>\\n        <!-- /.container-fluid -->\\n\\n        <!-- Sticky Footer -->\\n        <footer class="sticky-footer">\\n          <div class="container my-auto">\\n            <div class="copyright text-center my-auto">\\n              <span>\', escape=False)'
p105
sI141
S'response.write(DICT["sp390"])'
p106
sI142
S'response.write(\'</span>\\n            </div>\\n          </div>\\n        </footer>\\n\\n      </div>\\n      <!-- /.content-wrapper -->\\n\\n    </div>\\n    <!-- /#wrapper -->\\n\\n    <!-- Scroll to Top Button-->\\n    <a class="scroll-to-top rounded" href="#page-top">\\n      <i class="fas fa-angle-up"></i>\\n    </a>\\n\\n    <!-- Logout Modal-->\\n    <div class="modal fade" id="logoutModal" tabindex="-1" role="dialog" aria-labelledby="exampleModalLabel" aria-hidden="true">\\n      <div class="modal-dialog" role="document">\\n        <div class="modal-content">\\n          <div class="modal-header">\\n            <h5 class="modal-title" id="exampleModalLabel">\', escape=False)'
p107
sI143
S'response.write(DICT["he391"])'
p108
sI124
S'response.write(\'</span>\\n                  <span class="float-right">\\n                    <i class="fas fa-angle-right"></i>\\n                  </span>\\n                </a>\\n              </div>\\n            </div>\\n          </div>\\n\\n          <!-- Area Chart Example-->\\n          <div class="card mb-3">\\n            <div class="card-header">\\n              <i class="fas fa-chart-area"></i>\\n              Area Chart Example</div>\\n            <div class="card-body">\\n              <canvas id="myAreaChart" width="100%" height="30"></canvas>\\n            </div>\\n            <div class="card-footer small text-muted">\', escape=False)'
p109
sI125
S'response.write(DICT["di331"])'
p110
sI126
S'response.write(\'</div>\\n          </div>\\n\\n          <!-- DataTables Example -->\\n          <div class="card mb-3">\\n            <div class="card-header">\\n              <i class="fas fa-table"></i>\\n              Data Table Example</div>\\n            <div class="card-body">\\n              <div class="table-responsive">\\n                <table class="table table-bordered" id="dataTable" width="100%" cellspacing="0">\\n                  \\n<thead>\\n<tr>\\n<th>Name</th>\\n<th>Position</th>\\n<th>Office</th>\\n<th>Age</th>\\n<th>Start date</th>\\n<th>Salary</th>\\n</thead>\\n</tr>\\n\\n<tbody>\\n\', escape=False)'
p111
sI127
S'query= db.indextable0.id > 0'
p112
ssg85
S'()'
p113
sg87
S'<module>'
p114
sasS'pyver'
p115
S'Python 2.7.13: /home/w2p/.conda/envs/lic/bin/python (prefix: /home/w2p/.conda/envs/lic)'
p116
sS'session'
p117
g59
(S's\x1a\x00\x00\x00<div><table></table></div>'
tRp118
sS'etype'
p119
S"<type 'exceptions.NameError'>"
p120
sS'date'
p121
S'Mon May  6 09:07:32 2019'
p122
sS'response'
p123
g59
(S's\x85#\x00\x00<div><table><tr><td style="font-weight:bold;vertical-align:top;">body</td><td style="vertical-align:top;">:</td><td><div>&lt;cStringIO.StringO object at 0x7f4d6c52df48&gt;</div></td></tr><tr><td style="font-weight:bold;vertical-align:top;">cookies</td><td style="vertical-align:top;">:</td><td><div><table><tr><td style="font-weight:bold;vertical-align:top;">session_id_ji103</td><td style="vertical-align:top;">:</td><td><div>10.26.255.68-85f4b301-cf65-476a-b540-11f620896c2d<table><tr><td style="font-weight:bold;vertical-align:top;">comment</td><td style="vertical-align:top;">:</td><td><div></div></td></tr><tr><td style="font-weight:bold;vertical-align:top;">domain</td><td style="vertical-align:top;">:</td><td><div></div></td></tr><tr><td style="font-weight:bold;vertical-align:top;">expires</td><td style="vertical-align:top;">:</td><td><div></div></td></tr><tr><td style="font-weight:bold;vertical-align:top;">httponly</td><td style="vertical-align:top;">:</td><td><div></div></td></tr><tr><td style="font-weight:bold;vertical-align:top;">max-age</td><td style="vertical-align:top;">:</td><td><div></div></td></tr><tr><td style="font-weight:bold;vertical-align:top;">path</td><td style="vertical-align:top;">:</td><td><div>/</div></td></tr><tr><td style="font-weight:bold;vertical-align:top;">secure</td><td style="vertical-align:top;">:</td><td><div></div></td></tr><tr><td style="font-weight:bold;vertical-align:top;">version</td><td style="vertical-align:top;">:</td><td><div></div></td></tr></table></div></td></tr></table></div></td></tr><tr><td style="font-weight:bold;vertical-align:top;">delimiters</td><td style="vertical-align:top;">:</td><td><div><table><tr><td><div>{{</div></td></tr><tr><td><div>}}</div></td></tr></table></div></td></tr><tr><td style="font-weight:bold;vertical-align:top;">files</td><td style="vertical-align:top;">:</td><td><div><table><tr><td><div>/ji103/static/js/jquery.js</div></td></tr><tr><td><div>/ji103/static/css/calendar.css</div></td></tr><tr><td><div>/ji103/static/js/calendar.js</div></td></tr><tr><td><div>/ji103/static/js/web2py.js</div></td></tr></table></div></td></tr><tr><td style="font-weight:bold;vertical-align:top;">flash</td><td style="vertical-align:top;">:</td><td><div></div></td></tr><tr><td style="font-weight:bold;vertical-align:top;">flash0</td><td style="vertical-align:top;">:</td><td><div>form-name indexform0</div></td></tr><tr><td style="font-weight:bold;vertical-align:top;">form_label_separator</td><td style="vertical-align:top;">:</td><td><div></div></td></tr><tr><td style="font-weight:bold;vertical-align:top;">formstyle</td><td style="vertical-align:top;">:</td><td><div>bootstrap3_inline</div></td></tr><tr><td style="font-weight:bold;vertical-align:top;">generic_patterns</td><td style="vertical-align:top;">:</td><td><div><table></table></div></td></tr><tr><td style="font-weight:bold;vertical-align:top;">headers</td><td style="vertical-align:top;">:</td><td><div><table><tr><td style="font-weight:bold;vertical-align:top;">X-Powered-By</td><td style="vertical-align:top;">:</td><td><div>xping</div></td></tr></table></div></td></tr><tr><td style="font-weight:bold;vertical-align:top;">menu</td><td style="vertical-align:top;">:</td><td><div><table><tr><td><div><table><tr><td><div>Myadd</div></td></tr><tr><td><div>False</div></td></tr><tr><td><div>/ji103/myadd/index</div></td></tr><tr><td><div><table></table></div></td></tr></table></div></td></tr><tr><td><div><table><tr><td><div>Home</div></td></tr><tr><td><div>False</div></td></tr><tr><td><div>/ji103/default/index</div></td></tr><tr><td><div><table></table></div></td></tr></table></div></td></tr><tr><td><div><table><tr><td><div>My Sites</div></td></tr><tr><td><div>False</div></td></tr><tr><td><div>/admin/default/site</div></td></tr></table></div></td></tr><tr><td><div><table><tr><td><div>This App</div></td></tr><tr><td><div>False</div></td></tr><tr><td><div>#</div></td></tr><tr><td><div><table><tr><td><div><table><tr><td><div>Design</div></td></tr><tr><td><div>False</div></td></tr><tr><td><div>/admin/default/design/ji103</div></td></tr></table></div></td></tr><tr><td><div><table><tr><td><div>Myadd ctrl</div></td></tr><tr><td><div>False</div></td></tr><tr><td><div>/admin/default/edit/ji103/controllers/myadd.py</div></td></tr></table></div></td></tr><tr><td><div><table><tr><td><div>Myima ctrl</div></td></tr><tr><td><div>False</div></td></tr><tr><td><div>/admin/default/edit/ji103/controllers/myima.py</div></td></tr></table></div></td></tr><tr><td><div><table><tr><td><div>default ctrl</div></td></tr><tr><td><div>False</div></td></tr><tr><td><div>/admin/default/edit/ji103/controllers/default.py</div></td></tr></table></div></td></tr><tr><td><div><table><tr><td><div>DB Model</div></td></tr><tr><td><div>False</div></td></tr><tr><td><div>/admin/default/edit/ji103/models/db.py</div></td></tr></table></div></td></tr><tr><td><div><table><tr><td><div>Database</div></td></tr><tr><td><div>False</div></td></tr><tr><td><div>/ji103/appadmin/index</div></td></tr></table></div></td></tr><tr><td><div><table><tr><td><div>Errors</div></td></tr><tr><td><div>False</div></td></tr><tr><td><div>/admin/default/errors/ji103</div></td></tr></table></div></td></tr><tr><td><div><table><tr><td><div>About</div></td></tr><tr><td><div>False</div></td></tr><tr><td><div>/admin/default/about/ji103</div></td></tr></table></div></td></tr></table></div></td></tr></table></div></td></tr><tr><td><div><table><tr><td><div>auth</div></td></tr><tr><td><div>False</div></td></tr><tr><td><div>/ji103/default/index</div></td></tr><tr><td><div><table><tr><td><div><table><tr><td><div>events</div></td></tr><tr><td><div>False</div></td></tr><tr><td><div>/ji103/myadd/auth_eventctrl</div></td></tr></table></div></td></tr><tr><td><div><table><tr><td><div>users</div></td></tr><tr><td><div>False</div></td></tr><tr><td><div>/ji103/myadd/auth_userctrl</div></td></tr></table></div></td></tr><tr><td><div><table><tr><td><div>groups</div></td></tr><tr><td><div>False</div></td></tr><tr><td><div>/ji103/myadd/auth_groupctrl</div></td></tr></table></div></td></tr><tr><td><div><table><tr><td><div>member</div></td></tr><tr><td><div>False</div></td></tr><tr><td><div>/ji103/myadd/auth_membershipctrl</div></td></tr></table></div></td></tr></table></div></td></tr></table></div></td></tr></table></div></td></tr><tr><td style="font-weight:bold;vertical-align:top;">meta</td><td style="vertical-align:top;">:</td><td><div><table></table></div></td></tr><tr><td style="font-weight:bold;vertical-align:top;">models_to_run</td><td style="vertical-align:top;">:</td><td><div><table><tr><td><div>^\\w+\\.py$</div></td></tr><tr><td><div>^default/\\w+\\.py$</div></td></tr><tr><td><div>^default/index/\\w+\\.py$</div></td></tr></table></div></td></tr><tr><td style="font-weight:bold;vertical-align:top;">postprocessing</td><td style="vertical-align:top;">:</td><td><div><table></table></div></td></tr><tr><td style="font-weight:bold;vertical-align:top;">session_client</td><td style="vertical-align:top;">:</td><td><div>10.26.255.68</div></td></tr><tr><td style="font-weight:bold;vertical-align:top;">session_cookie_compression_level</td><td style="vertical-align:top;">:</td><td><div>None</div></td></tr><tr><td style="font-weight:bold;vertical-align:top;">session_cookie_expires</td><td style="vertical-align:top;">:</td><td><div>None</div></td></tr><tr><td style="font-weight:bold;vertical-align:top;">session_data_name</td><td style="vertical-align:top;">:</td><td><div>session_data_ji103</div></td></tr><tr><td style="font-weight:bold;vertical-align:top;">session_file</td><td style="vertical-align:top;">:</td><td><div>None</div></td></tr><tr><td style="font-weight:bold;vertical-align:top;">session_filename</td><td style="vertical-align:top;">:</td><td><div>/home/w2p/web2py/applications/ji103/sessions/10.26.255.68-85f4b301-cf65-476a-b540-11f620896c2d</div></td></tr><tr><td style="font-weight:bold;vertical-align:top;">session_hash</td><td style="vertical-align:top;">:</td><td><div>c0762cbf4baf7f9af97c051e7fcb8083</div></td></tr><tr><td style="font-weight:bold;vertical-align:top;">session_id</td><td style="vertical-align:top;">:</td><td><div>10.26.255.68-85f4b301-cf65-476a-b540-11f620896c2d</div></td></tr><tr><td style="font-weight:bold;vertical-align:top;">session_id_name</td><td style="vertical-align:top;">:</td><td><div>session_id_ji103</div></td></tr><tr><td style="font-weight:bold;vertical-align:top;">session_masterapp</td><td style="vertical-align:top;">:</td><td><div>ji103</div></td></tr><tr><td style="font-weight:bold;vertical-align:top;">session_new</td><td style="vertical-align:top;">:</td><td><div>True</div></td></tr><tr><td style="font-weight:bold;vertical-align:top;">session_storage_type</td><td style="vertical-align:top;">:</td><td><div>file</div></td></tr><tr><td style="font-weight:bold;vertical-align:top;">status</td><td style="vertical-align:top;">:</td><td><div>200</div></td></tr><tr><td style="font-weight:bold;vertical-align:top;">view</td><td style="vertical-align:top;">:</td><td><div>default/index.html</div></td></tr></table></div>'
tRp124
sS'locals'
p125
(dp126
S'Service'
p127
S"<class 'gluon.tools.Service'>"
p128
sS'PY2'
p129
S'True'
p130
sS'OBJECT'
p131
S"<class 'gluon.html.OBJECT'>"
p132
sS'results'
p133
S'<Rows (59)>'
p134
sS'SQLDB'
p135
S"<class 'pydal.base.DAL'>"
p136
sS'indexform0'
p137
S'<gluon.sqlhtml.SQLFORM object>'
p138
sg117
S"<Storage {'_formkey[dindexform0/create]': ['7dedcc85-2f57-4c12-8269-7eb1d7e58d32']}>"
p139
sS'LINK'
p140
S"<class 'gluon.html.LINK'>"
p141
sS'BR'
p142
S"<class 'gluon.html.BR'>"
p143
sS'local_import'
p144
S'<function <lambda>>'
p145
sS'OPTGROUP'
p146
S"<class 'gluon.html.OPTGROUP'>"
p147
sS'query'
p148
S'<Query ("indextable0"."id" > 0)>'
p149
sS'__package__'
p150
S'None'
p151
sS'PRE'
p152
S"<class 'gluon.html.PRE'>"
p153
sS'IS_INT_IN_RANGE'
p154
S"<class 'gluon.validators.IS_INT_IN_RANGE'>"
p155
sS'to_bytes'
p156
S'<function to_bytes>'
p157
sS'IS_LOWER'
p158
S"<class 'gluon.validators.IS_LOWER'>"
p159
sS'IS_STRONG'
p160
S"<class 'gluon.validators.IS_STRONG'>"
p161
sS'cache'
p162
S'<gluon.cache.Cache object>'
p163
sS'IS_IN_DB'
p164
S"<class 'gluon.validators.IS_IN_DB'>"
p165
sS'TAG'
p166
S'<gluon.html.__TAG__ object>'
p167
sS'SQLField'
p168
S"<class 'pydal.objects.Field'>"
p169
sS'mail'
p170
S'<gluon.tools.Mail object>'
p171
sS'BODY'
p172
S"<class 'gluon.html.BODY'>"
p173
sS'IS_DATE_IN_RANGE'
p174
S"<class 'gluon.validators.IS_DATE_IN_RANGE'>"
p175
sS'IFRAME'
p176
S"<class 'gluon.html.IFRAME'>"
p177
sS'URL'
p178
S'<function URL>'
p179
sS'__file__'
p180
S"'/home/w2p/web2py/applications/ji103/views/default/index.html'"
p181
sS'db'
p182
S'<DAL uri="sqlite://storage.sqlite">'
p183
sS'auth'
p184
S'<gluon.tools.Auth object>'
p185
sS'P'
S"<class 'gluon.html.P'>"
p186
sS'TFOOT'
p187
S"<class 'gluon.html.TFOOT'>"
p188
sS'iteritems'
p189
S'<function <lambda>>'
p190
sS'XHTML'
p191
S"<class 'gluon.html.XHTML'>"
p192
sS'ON'
p193
g130
sS'OL'
p194
S"<class 'gluon.html.OL'>"
p195
sS'TEXTAREA'
p196
S"<class 'gluon.html.TEXTAREA'>"
p197
sS'MENU'
p198
S"<class 'gluon.html.MENU'>"
p199
sS'IS_IMAGE'
p200
S"<class 'gluon.validators.IS_IMAGE'>"
p201
sS'add_myadd'
p202
S"[(<lazyT 'Myadd'>, False, '/ji103/myadd/index', [])]"
p203
sS'EM'
p204
S"<class 'gluon.html.EM'>"
p205
sS'CODE'
p206
S"<class 'gluon.html.CODE'>"
p207
sS'HTTP'
p208
S"<class 'gluon.http.HTTP'>"
p209
sS'HR'
p210
S"<class 'gluon.html.HR'>"
p211
sS'IS_DATETIME'
p212
S"<class 'gluon.validators.IS_DATETIME'>"
p213
sS'reduce'
p214
S'<built-in function reduce>'
p215
sS'STYLE'
p216
S"<class 'gluon.html.STYLE'>"
p217
sS'LABEL'
p218
S"<class 'gluon.html.LABEL'>"
p219
sS'CLEANUP'
p220
S"<class 'gluon.validators.CLEANUP'>"
p221
sS'plugins'
p222
S'<gluon.tools.PluginManager object>'
p223
sS'SELECT'
p224
S"<class 'gluon.html.SELECT'>"
p225
sS'CENTER'
p226
S"<class 'gluon.html.CENTER'>"
p227
sS'Auth'
p228
S"<class 'gluon.tools.Auth'>"
p229
sS'global_settings'
p230
S"<Storage {'debugging': False, 'is_pypy': False, ...+timestamp.2017.09.02.04.02.22', 'is_py2': True}>"
p231
sS'HTML'
p232
S"<class 'gluon.html.HTML'>"
p233
sS'SQLFORM'
p234
S"<class 'gluon.sqlhtml.SQLFORM'>"
p235
sS'LOAD'
p236
S'<function LOAD>'
p237
sS'redirect'
p238
S'<function redirect>'
p239
sS'FIELDSET'
p240
S"<class 'gluon.html.FIELDSET'>"
p241
sS'IS_EQUAL_TO'
p242
S"<class 'gluon.validators.IS_EQUAL_TO'>"
p243
sS'embed64'
p244
S'<function embed64>'
p245
sS'IS_LIST_OF'
p246
S"<class 'gluon.validators.IS_LIST_OF'>"
p247
sS'INPUT'
p248
S"<class 'gluon.html.INPUT'>"
p249
sS'EMBED'
p250
S"<class 'gluon.html.EMBED'>"
p251
sS'_'
S'<function _>'
p252
sS'FORM'
p253
S"<class 'gluon.html.FORM'>"
p254
sS'myconf'
p255
S"{'forms': {'formstyle': 'bootstrap3_inline', 'se...': {'names': 'localhost:*, 127.0.0.1:*, *:*, *'}}"
p256
sS'H2'
p257
S"<class 'gluon.html.H2'>"
p258
sS'H3'
p259
S"<class 'gluon.html.H3'>"
p260
sS'AppConfig'
p261
S'<function AppConfig>'
p262
sS'H1'
p263
S"<class 'gluon.html.H1'>"
p264
sS'H6'
p265
S"<class 'gluon.html.H6'>"
p266
sS'H4'
p267
S"<class 'gluon.html.H4'>"
p268
sS'H5'
p269
S"<class 'gluon.html.H5'>"
p270
sS'UL'
p271
S"<class 'gluon.html.UL'>"
p272
sS'IS_UPPER'
p273
S"<class 'gluon.validators.IS_UPPER'>"
p274
sS'xmlescape'
p275
S'<function xmlescape>'
p276
sS'IS_TIME'
p277
S"<class 'gluon.validators.IS_TIME'>"
p278
sS'OPTION'
p279
S"<class 'gluon.html.OPTION'>"
p280
sS'TITLE'
p281
S"<class 'gluon.html.TITLE'>"
p282
sS'CRYPT'
p283
S"<class 'gluon.validators.CRYPT'>"
p284
sS'IS_EMPTY_OR'
p285
S"<class 'gluon.validators.IS_EMPTY_OR'>"
p286
sS'MARKMIN'
p287
S"<class 'gluon.html.MARKMIN'>"
p288
sS'__name__'
p289
S"'__restricted__'"
p290
sS'STRONG'
p291
S"<class 'gluon.html.STRONG'>"
p292
sS'COL'
p293
S"<class 'gluon.html.COL'>"
p294
sS'service'
p295
S'<gluon.tools.Service object>'
p296
sS'SCRIPT'
p297
S"<class 'gluon.html.SCRIPT'>"
p298
sS'add_myima'
p299
S"[(<lazyT 'Myima'>, False, '/ji103/myima/index', [])]"
p300
sS'TABLE'
p301
S"<class 'gluon.html.TABLE'>"
p302
sS'IS_IPV4'
p303
S"<class 'gluon.validators.IS_IPV4'>"
p304
sS'IS_LENGTH'
p305
S"<class 'gluon.validators.IS_LENGTH'>"
p306
sS'IS_IPV6'
p307
S"<class 'gluon.validators.IS_IPV6'>"
p308
sS'XML'
p309
S"<class 'gluon.html.XML'>"
p310
sS'B'
S"<class 'gluon.html.B'>"
p311
sS'IMG'
p312
S"<class 'gluon.html.IMG'>"
p313
sS'SQLTABLE'
p314
S"<class 'gluon.sqlhtml.SQLTABLE'>"
p315
sS'IS_MATCH'
p316
S"<class 'gluon.validators.IS_MATCH'>"
p317
sS'IS_ALPHANUMERIC'
p318
S"<class 'gluon.validators.IS_ALPHANUMERIC'>"
p319
sS'SPAN'
p320
S"<class 'gluon.html.SPAN'>"
p321
sS'IS_JSON'
p322
S"<class 'gluon.validators.IS_JSON'>"
p323
sS'IS_IPADDRESS'
p324
S"<class 'gluon.validators.IS_IPADDRESS'>"
p325
sS'IS_SLUG'
p326
S"<class 'gluon.validators.IS_SLUG'>"
p327
sS'BEAUTIFY'
p328
S"<class 'gluon.html.BEAUTIFY'>"
p329
sS'META'
p330
S"<class 'gluon.html.META'>"
p331
sS'check_initialize'
p332
S'<function check_initialize>'
p333
sS'BUTTON'
p334
S"<class 'gluon.html.BUTTON'>"
p335
sS'IS_DATE'
p336
S"<class 'gluon.validators.IS_DATE'>"
p337
sS'IS_EMAIL'
p338
S"<class 'gluon.validators.IS_EMAIL'>"
p339
sS'IS_NOT_EMPTY'
p340
S"<class 'gluon.validators.IS_NOT_EMPTY'>"
p341
sS'xrange'
p342
S"<type 'xrange'>"
p343
sS'TBODY'
p344
S"<class 'gluon.html.TBODY'>"
p345
sS'CAT'
p346
S"<class 'gluon.html.CAT'>"
p347
sS'Field'
p348
S"<class 'pydal.objects.Field'>"
p349
sS'IS_LIST_OF_EMAILS'
p350
S"<class 'gluon.validators.IS_LIST_OF_EMAILS'>"
p351
sg58
S"<Storage {'_vars': None, 'function': 'index', 'c...folder': '/home/w2p/web2py/applications/ji103/'}>"
p352
sS'DIV'
p353
S"<class 'gluon.html.DIV'>"
p354
sS'LEGEND'
p355
S"<class 'gluon.html.LEGEND'>"
p356
sS'to_native'
p357
S'<function to_native>'
p358
sS'COLGROUP'
p359
S"<class 'gluon.html.COLGROUP'>"
p360
sS'DAL'
p361
S"<class 'pydal.base.DAL'>"
p362
sS'ASSIGNJS'
p363
S'<function ASSIGNJS>'
p364
sS'TR'
p365
S"<class 'gluon.html.TR'>"
p366
sS'LI'
p367
S"<class 'gluon.html.LI'>"
p368
sS'TH'
p369
S"<class 'gluon.html.TH'>"
p370
sS'TD'
p371
S"<class 'gluon.html.TD'>"
p372
sS'PluginManager'
p373
S"<class 'gluon.tools.PluginManager'>"
p374
sS'IS_URL'
p375
S"<class 'gluon.validators.IS_URL'>"
p376
sS'A'
S"<class 'gluon.html.A'>"
p377
sS'HEAD'
p378
S"<class 'gluon.html.HEAD'>"
p379
sS'IS_DATETIME_IN_RANGE'
p380
S"<class 'gluon.validators.IS_DATETIME_IN_RANGE'>"
p381
sS'populate'
p382
S'<function populate>'
p383
sS'I'
S"<class 'gluon.html.I'>"
p384
sS'__builtins__'
p385
S"{'ArithmeticError': <type 'exceptions.ArithmeticError'>, 'AssertionError': <type 'exceptions.AssertionError'>, 'AttributeError': <type 'exceptions.AttributeError'>, 'BaseException': <type 'exceptions.BaseException'>, 'BufferError': <type 'exceptions.BufferError'>, 'BytesWarning': <type 'exceptions.BytesWarning'>, 'DeprecationWarning': <type 'exceptions.DeprecationWarning'>, 'EOFError': <type 'exceptions.EOFError'>, 'Ellipsis': Ellipsis, 'EnvironmentError': <type 'exceptions.EnvironmentError'>, ...}"
p386
sS'IS_NOT_IN_DB'
p387
S"<class 'gluon.validators.IS_NOT_IN_DB'>"
p388
sg123
S"<Storage {'body': <cStringIO.StringO object at 0...t 0x7f4d6c4fae60>, 'view': 'default/index.html'}>"
p389
sS'THEAD'
p390
S"<class 'gluon.html.THEAD'>"
p391
sS'ANY_OF'
p392
S"<class 'gluon.validators.ANY_OF'>"
p393
sS'IS_NULL_OR'
p394
S"<class 'gluon.validators.IS_EMPTY_OR'>"
p395
sS'IS_FLOAT_IN_RANGE'
p396
S"<class 'gluon.validators.IS_FLOAT_IN_RANGE'>"
p397
sS'IS_EXPR'
p398
S"<class 'gluon.validators.IS_EXPR'>"
p399
sS'T'
S'<gluon.languages.translator object>'
p400
sS'IS_IN_SET'
p401
S"<class 'gluon.validators.IS_IN_SET'>"
p402
sS'DICT'
p403
S"{'aa289': '(289)Start Bootstrap', 'aa292': '(292)Action', 'aa293': '(293)Another action', 'aa294': '(294)Something else here', 'aa296': '(296)Action', 'aa297': '(297)Another action', 'aa298': '(298)Something else here', 'aa299': '(299)Settings', 'aa300': '(300)Activity Log', 'aa301': '(301)Logout', ...}"
p404
sS'IS_UPLOAD_FILENAME'
p405
S"<class 'gluon.validators.IS_UPLOAD_FILENAME'>"
p406
sS'TT'
p407
S"<class 'gluon.html.TT'>"
p408
sS'IS_DECIMAL_IN_RANGE'
p409
S"<class 'gluon.validators.IS_DECIMAL_IN_RANGE'>"
p410
sssS'traceback'
p411
S'Traceback (most recent call last):\n  File "/home/w2p/web2py/gluon/restricted.py", line 219, in restricted\n    exec(ccode, environment)\n  File "/home/w2p/web2py/applications/ji103/views/default/index.html", line 133, in <module>\nNameError: name \'result\' is not defined\n'
p412
s.