(dp1
S'output'
p2
S"<type 'exceptions.AttributeError'> "
p3
sS'layer'
p4
S'/home/w2p/web2py/applications/ji103/views/default/tables.html'
p5
sS'code'
p6
S'response.write(\'<!DOCTYPE html>\\n<html lang="en">\\n\\n  <head>\\n\\n    <meta charset="utf-8">\\n    <meta http-equiv="X-UA-Compatible" content="IE=edge">\\n    <meta name="viewport" content="width=device-width, initial-scale=1, shrink-to-fit=no">\\n    <meta name="description" content="">\\n    <meta name="author" content="">\\n\\n    <title>facew2p</title>\\n\\n    <!-- Bootstrap core CSS-->\\n    <link href="\', escape=False)\nresponse.write(URL(\'static\',\'template/vendor/bootstrap/css/bootstrap.min.css\'))\nresponse.write(\'" rel="stylesheet">\\n\\n    <!-- Custom fonts for this template-->\\n    <link href="\', escape=False)\nresponse.write(URL(\'static\',\'template/vendor/fontawesome-free/css/all.min.css\'))\nresponse.write(\'" rel="stylesheet" type="text/css">\\n\\n    <!-- Page level plugin CSS-->\\n    <link href="\', escape=False)\nresponse.write(URL(\'static\',\'template/vendor/datatables/dataTables.bootstrap4.css\'))\nresponse.write(\'" rel="stylesheet">\\n\\n    <!-- Custom styles for this template-->\\n    <link href="\', escape=False)\nresponse.write(URL(\'static\',\'template/css/sb-admin.css\'))\nresponse.write(\'" rel="stylesheet">\\n\\n  \\n\\n   <meta charset=\\\'utf-8\\\'>\\n   <link  rel="icon" type="image/x-icon" href="\', escape=False)\nresponse.write(URL(\'static\',\'images/favicon.ico\'))\nresponse.write(\'"  >\\n</head>\\n\\n  <body id="page-top">\\n\\n    <nav class="navbar navbar-expand navbar-dark bg-dark static-top">\\n\\n      <a class="navbar-brand mr-1" href="\', escape=False)\nresponse.write(URL(c=\'default\',f=\'index\'))\nresponse.write(\'">\', escape=False)\nresponse.write(DICT["aa122"])\nresponse.write(\'</a>\\n\\n      <button class="btn btn-link btn-sm text-white order-1 order-sm-0" id="sidebarToggle" href="#">\\n        <i class="fas fa-bars"></i>\\n      </button>\\n\\n      <!-- Navbar Search -->\\n      \\n\', escape=False)\nresponse.write(\'\\n\', escape=False)\nresponse.write(\'<script type="text/javascript"><!--\\n    // These variables are used by the web2py_ajax_init function in web2py_ajax.js (which is loaded below).\\n    \', escape=False)\nresponse.write(ASSIGNJS(\nw2p_ajax_confirm_message = T(\'Are you sure you want to delete this object?\'),\nw2p_ajax_disable_with_message = T(\'Working...\'),\nw2p_ajax_date_format = T(\'%Y-%m-%d\'),\nw2p_ajax_datetime_format = T(\'%Y-%m-%d %H:%M:%S\'),\najax_error_500 = T.M(\'An error occured, please [[reload %s]] the page\') % URL(args=request.args, vars=request.get_vars)\n))\nresponse.write(\'\\n    //--></script>\\n\', escape=False)\nresponse.files.insert(0,URL(\'static\',\'js/jquery.js\'))\nresponse.files.insert(1,URL(\'static\',\'css/calendar.css\'))\nresponse.files.insert(2,URL(\'static\',\'js/calendar.js\'))\nresponse.files.insert(3,URL(\'static\',\'js/web2py.js\'))\nresponse.include_meta()\nresponse.include_files()\nresponse.write(\'\\n\', escape=False)\nresponse.write(\'\\n\\n\', escape=False)\nresponse.write(tablesform0.custom.begin)\nresponse.write(\'\\n\', escape=False)\nresponse.write(tablesform0.custom.widget.f0)\nresponse.write(\'\\n\', escape=False)\nresponse.write(tablesform0.custom.submit)\nresponse.write(\'\\n\', escape=False)\nresponse.write(tablesform0.custom.end)\nresponse.write(\'\\n\\n<div  id=divID0 style="heigth:50%;margin 0;display:inline-flex;padding: 0 5px 2px 5px;background-color:#F0FFF0;color:black;border: 1px dashed red;" >\\n                   <small>\', escape=False)\nresponse.write(response.flash0 or \'\')\nresponse.write("</small>\\n</div>\\n\\n <script>\\n setTimeout(function(){\\n  if ($(\'#divID0\').length > 0) {\\n    $(\'#divID0\').remove();\\n  } \\n}, 15000)\\n </script>\\n", escape=False)\nresponse.write(\'\\n\\n\\n      <!-- Navbar -->\\n      <ul class="navbar-nav ml-auto ml-md-0">\\n        <li class="nav-item dropdown no-arrow mx-1">\\n          <a class="nav-link dropdown-toggle" href="#" id="alertsDropdown" role="button" data-toggle="dropdown" aria-haspopup="true" aria-expanded="false">\\n            <i class="fas fa-bell fa-fw"></i>\\n            <span class="badge badge-danger">\', escape=False)\nresponse.write(DICT["sx124"])\nresponse.write(\'</span>\\n          </a>\\n          <div class="dropdown-menu dropdown-menu-right" aria-labelledby="alertsDropdown">\\n            <a class="dropdown-item" href="#">\', escape=False)\nresponse.write(DICT["aa125"])\nresponse.write(\'</a>\\n            <a class="dropdown-item" href="#">\', escape=False)\nresponse.write(DICT["aa126"])\nresponse.write(\'</a>\\n            <div class="dropdown-divider"></div>\\n            <a class="dropdown-item" href="#">\', escape=False)\nresponse.write(DICT["aa127"])\nresponse.write(\'</a>\\n          </div>\\n        </li>\\n        <li class="nav-item dropdown no-arrow mx-1">\\n          <a class="nav-link dropdown-toggle" href="#" id="messagesDropdown" role="button" data-toggle="dropdown" aria-haspopup="true" aria-expanded="false">\\n            <i class="fas fa-envelope fa-fw"></i>\\n            <span class="badge badge-danger">\', escape=False)\nresponse.write(DICT["sx128"])\nresponse.write(\'</span>\\n          </a>\\n          <div class="dropdown-menu dropdown-menu-right" aria-labelledby="messagesDropdown">\\n            <a class="dropdown-item" href="#">\', escape=False)\nresponse.write(DICT["aa129"])\nresponse.write(\'</a>\\n            <a class="dropdown-item" href="#">\', escape=False)\nresponse.write(DICT["aa130"])\nresponse.write(\'</a>\\n            <div class="dropdown-divider"></div>\\n            <a class="dropdown-item" href="#">\', escape=False)\nresponse.write(DICT["aa131"])\nresponse.write(\'</a>\\n          </div>\\n        </li>\\n        <li class="nav-item dropdown no-arrow">\\n          <a class="nav-link dropdown-toggle" href="#" id="userDropdown" role="button" data-toggle="dropdown" aria-haspopup="true" aria-expanded="false">\\n            <i class="fas fa-user-circle fa-fw"></i>\\n          </a>\\n          <div class="dropdown-menu dropdown-menu-right" aria-labelledby="userDropdown">\\n            <a class="dropdown-item" href="#">\', escape=False)\nresponse.write(DICT["aa132"])\nresponse.write(\'</a>\\n            <a class="dropdown-item" href="#">\', escape=False)\nresponse.write(DICT["aa133"])\nresponse.write(\'</a>\\n            <div class="dropdown-divider"></div>\\n            <a class="dropdown-item" href="#" data-toggle="modal" data-target="#logoutModal">\', escape=False)\nresponse.write(DICT["aa134"])\nresponse.write(\'</a>\\n          </div>\\n        </li>\\n      </ul>\\n\\n    </nav>\\n\\n    <div id="wrapper">\\n\\n      <!-- Sidebar -->\\n      <ul class="sidebar navbar-nav">\\n        <li class="nav-item">\\n          <a class="nav-link" href="\', escape=False)\nresponse.write(URL(c=\'default\',f=\'index\'))\nresponse.write(\'">\\n            <i class="fas fa-fw fa-tachometer-alt"></i>\\n            <span>\', escape=False)\nresponse.write(DICT["sp136"])\nresponse.write(\'</span>\\n          </a>\\n        </li>\\n        <li class="nav-item dropdown">\\n          <a class="nav-link dropdown-toggle" href="#" id="pagesDropdown" role="button" data-toggle="dropdown" aria-haspopup="true" aria-expanded="false">\\n            <i class="fas fa-fw fa-folder"></i>\\n            <span>\', escape=False)\nresponse.write(DICT["sp137"])\nresponse.write(\'</span>\\n          </a>\\n          <div class="dropdown-menu" aria-labelledby="pagesDropdown">\\n            <h6 class="dropdown-header">\', escape=False)\nresponse.write(DICT["hf138"])\nresponse.write(\'</h6>\\n            <a class="dropdown-item" href="\', escape=False)\nresponse.write(URL(c=\'default\',f=\'login\'))\nresponse.write(\'">\', escape=False)\nresponse.write(DICT["aa140"])\nresponse.write(\'</a>\\n            <a class="dropdown-item" href="\', escape=False)\nresponse.write(URL(c=\'default\',f=\'register\'))\nresponse.write(\'">\', escape=False)\nresponse.write(DICT["aa142"])\nresponse.write(\'</a>\\n            <a class="dropdown-item" href="\', escape=False)\nresponse.write(URL(c=\'default\',f=\'forgot_password\'))\nresponse.write(\'">\', escape=False)\nresponse.write(DICT["aa144"])\nresponse.write(\'</a>\\n            <div class="dropdown-divider"></div>\\n            <h6 class="dropdown-header">\', escape=False)\nresponse.write(DICT["hf145"])\nresponse.write(\'</h6>\\n            <a class="dropdown-item" href="\', escape=False)\nresponse.write(URL(c=\'default\',f=\'X404\'))\nresponse.write(\'">\', escape=False)\nresponse.write(DICT["aa147"])\nresponse.write(\'</a>\\n            <a class="dropdown-item" href="\', escape=False)\nresponse.write(URL(c=\'default\',f=\'blank\'))\nresponse.write(\'">\', escape=False)\nresponse.write(DICT["aa149"])\nresponse.write(\'</a>\\n          </div>\\n        </li>\\n        <li class="nav-item">\\n          <a class="nav-link" href="\', escape=False)\nresponse.write(URL(c=\'default\',f=\'charts\'))\nresponse.write(\'">\\n            <i class="fas fa-fw fa-chart-area"></i>\\n            <span>\', escape=False)\nresponse.write(DICT["sp151"])\nresponse.write(\'</span></a>\\n        </li>\\n        <li class="nav-item active">\\n          <a class="nav-link" href="\', escape=False)\nresponse.write(URL(c=\'default\',f=\'tables\'))\nresponse.write(\'">\\n            <i class="fas fa-fw fa-table"></i>\\n            <span>\', escape=False)\nresponse.write(DICT["sp153"])\nresponse.write(\'</span></a>\\n        </li>\\n      </ul>\\n\\n      <div id="content-wrapper">\\n\\n        <div class="container-fluid">\\n\\n          <!-- Breadcrumbs-->\\n          <ol class="breadcrumb">\\n            <li class="breadcrumb-item">\\n              <a href="#">\', escape=False)\nresponse.write(DICT["aa154"])\nresponse.write(\'</a>\\n            </li>\\n            <li class="breadcrumb-item active">\', escape=False)\nresponse.write(DICT["lb155"])\nresponse.write(\'</li>\\n          </ol>\\n\\n          <!-- DataTables Example -->\\n          <div class="card mb-3">\\n            <div class="card-header">\\n              <i class="fas fa-table"></i>\\n              Data Table Example</div>\\n            <div class="card-body">\\n              <div class="table-responsive">\\n                <table class="table table-bordered" id="dataTable" width="100%" cellspacing="0">\\n                  \\n<thead>\\n<tr>\\n<th>\\xd0\\xb8\\xd0\\xbc\\xd1\\x8f</th>\\n<th>\\xd0\\x94\\xd0\\xbe\\xd0\\xbb\\xd0\\xb6\\xd0\\xbd\\xd0\\xbe\\xd1\\x81\\xd1\\x82\\xd1\\x8c</th>\\n<th>\\xd0\\x9a\\xd0\\xbe\\xd0\\xbd\\xd1\\x82\\xd0\\xbe\\xd1\\x80\\xd0\\xb0</th>\\n<th>\\xd0\\x92\\xd0\\xbe\\xd0\\xb7\\xd1\\x80\\xd0\\xb0\\xd1\\x81\\xd1\\x82</th>\\n<th>Start date</th>\\n<th>\\xd0\\x97\\xd0\\xb2\\xd1\\x80\\xd0\\xbf\\xd0\\xbb\\xd0\\xb0\\xd1\\x82\\xd0\\xb0</th>\\n</thead>\\n</tr>\\n\\n<tbody>\\n\', escape=False)\nquery= db.tablestable0.id > 0\nresponse.write(\'\\n\', escape=False)\nresults= db(query).select()\nresponse.write(\'\\n\', escape=False)\nif not None is results:\n    response.write(\'\\n\', escape=False)\n    for row in results:\n        response.write(\'\\n<tr>\\n    <td> \', escape=False)\n        response.write(row.f0)\n        response.write(\' </td>\\n    <td> \', escape=False)\n        response.write(row.f1)\n        response.write(\' </td>\\n    <td> \', escape=False)\n        response.write(row.f2)\n        response.write(\' </td>\\n    <td> \', escape=False)\n        response.write(row.f3)\n        response.write(\' </td>\\n    <td> \', escape=False)\n        response.write(row.f4)\n        response.write(\' </td>\\n    <td> \', escape=False)\n        response.write(row.f5)\n        response.write(\' </td>\\n</tr>\\n\', escape=False)\n        pass\n    response.write(\'\\n\', escape=False)\n    pass\nresponse.write(\'\\n</tbody>\\n\\n                </table>\\n              </div>\\n            </div>\\n            <div class="card-footer small text-muted">\', escape=False)\nresponse.write(DICT["di213"])\nresponse.write(\'</div>\\n          </div>\\n\\n          <p class="small text-center text-muted my-5">            <em>More table examples coming soon...</em>\', escape=False)\nresponse.write(DICT["pc214"])\nresponse.write(\'</p>\\n\\n        </div>\\n        <!-- /.container-fluid -->\\n\\n        <!-- Sticky Footer -->\\n        <footer class="sticky-footer">\\n          <div class="container my-auto">\\n            <div class="copyright text-center my-auto">\\n              <span>\', escape=False)\nresponse.write(DICT["sp215"])\nresponse.write(\'</span>\\n            </div>\\n          </div>\\n        </footer>\\n\\n      </div>\\n      <!-- /.content-wrapper -->\\n\\n    </div>\\n    <!-- /#wrapper -->\\n\\n    <!-- Scroll to Top Button-->\\n    <a class="scroll-to-top rounded" href="#page-top">\\n      <i class="fas fa-angle-up"></i>\\n    </a>\\n\\n    <!-- Logout Modal-->\\n    <div class="modal fade" id="logoutModal" tabindex="-1" role="dialog" aria-labelledby="exampleModalLabel" aria-hidden="true">\\n      <div class="modal-dialog" role="document">\\n        <div class="modal-content">\\n          <div class="modal-header">\\n            <h5 class="modal-title" id="exampleModalLabel">\', escape=False)\nresponse.write(DICT["he216"])\nresponse.write(\'</h5>\\n            <button class="close" type="button" data-dismiss="modal" aria-label="Close">\\n              <span aria-hidden="true">\', escape=False)\nresponse.write(DICT["sx217"])\nresponse.write(\'</span>\\n            </button>\\n          </div>\\n          <div class="modal-body">\', escape=False)\nresponse.write(DICT["di218"])\nresponse.write(\'</div>\\n          <div class="modal-footer">\\n            <button class="btn btn-secondary" type="button" data-dismiss="modal">\', escape=False)\nresponse.write(DICT["bu219"])\nresponse.write(\'</button>\\n            <a class="btn btn-primary" href="\', escape=False)\nresponse.write(URL(c=\'default\',f=\'login\'))\nresponse.write(\'">\', escape=False)\nresponse.write(DICT["aa221"])\nresponse.write(\'</a>\\n          </div>\\n        </div>\\n      </div>\\n    </div>\\n\\n    <!-- Bootstrap core JavaScript-->\\n    <script src="\', escape=False)\nresponse.write(URL(\'static\',\'template/vendor/jquery/jquery.min.js\'))\nresponse.write(\'"></script>\\n    <script src="\', escape=False)\nresponse.write(URL(\'static\',\'template/vendor/bootstrap/js/bootstrap.bundle.min.js\'))\nresponse.write(\'"></script>\\n\\n    <!-- Core plugin JavaScript-->\\n    <script src="\', escape=False)\nresponse.write(URL(\'static\',\'template/vendor/jquery-easing/jquery.easing.min.js\'))\nresponse.write(\'"></script>\\n\\n    <!-- Page level plugin JavaScript-->\\n    <script src="\', escape=False)\nresponse.write(URL(\'static\',\'template/vendor/datatables/jquery.dataTables.js\'))\nresponse.write(\'"></script>\\n    <script src="\', escape=False)\nresponse.write(URL(\'static\',\'template/vendor/datatables/dataTables.bootstrap4.js\'))\nresponse.write(\'"></script>\\n\\n    <!-- Custom scripts for all pages-->\\n    <script src="\', escape=False)\nresponse.write(URL(\'static\',\'template/js/sb-admin.min.js\'))\nresponse.write(\'"></script>\\n\\n    <!-- Demo scripts for this page-->\\n    <script src="\', escape=False)\nresponse.write(URL(\'static\',\'template/js/demo/datatables-demo.js\'))\nresponse.write(\'"></script>\\n\\n  </body>\\n\\n</html>\', escape=False)'
p7
sS'snapshot'
p8
(dp9
S'exception'
p10
(dp11
S'__getslice__'
p12
S"<method-wrapper '__getslice__' of exceptions.AttributeError object>"
p13
sS'__str__'
p14
S"<method-wrapper '__str__' of exceptions.AttributeError object>"
p15
sS'__reduce__'
p16
S'<built-in method __reduce__ of exceptions.AttributeError object>'
p17
sS'__dict__'
p18
S'{}'
p19
sS'message'
p20
S"''"
p21
sS'__sizeof__'
p22
S'<built-in method __sizeof__ of exceptions.AttributeError object>'
p23
sS'__init__'
p24
S"<method-wrapper '__init__' of exceptions.AttributeError object>"
p25
sS'__setattr__'
p26
S"<method-wrapper '__setattr__' of exceptions.AttributeError object>"
p27
sS'__reduce_ex__'
p28
S'<built-in method __reduce_ex__ of exceptions.AttributeError object>'
p29
sS'__new__'
p30
S'<built-in method __new__ of type object>'
p31
sS'__format__'
p32
S'<built-in method __format__ of exceptions.AttributeError object>'
p33
sS'__class__'
p34
S"<type 'exceptions.AttributeError'>"
p35
sS'__doc__'
p36
S"'Attribute not found.'"
p37
sS'__getitem__'
p38
S"<method-wrapper '__getitem__' of exceptions.AttributeError object>"
p39
sS'__setstate__'
p40
S'<built-in method __setstate__ of exceptions.AttributeError object>'
p41
sS'__getattribute__'
p42
S"<method-wrapper '__getattribute__' of exceptions.AttributeError object>"
p43
sS'args'
p44
S'()'
p45
sS'__subclasshook__'
p46
S'<built-in method __subclasshook__ of type object>'
p47
sS'__unicode__'
p48
S'<built-in method __unicode__ of exceptions.AttributeError object>'
p49
sS'__delattr__'
p50
S"<method-wrapper '__delattr__' of exceptions.AttributeError object>"
p51
sS'__repr__'
p52
S"<method-wrapper '__repr__' of exceptions.AttributeError object>"
p53
sS'__hash__'
p54
S"<method-wrapper '__hash__' of exceptions.AttributeError object>"
p55
ssS'evalue'
p56
S''
sS'request'
p57
cgluon.html
XML_unpickle
p58
(S's~\xda\x00\x00<div><table><tr><td style="font-weight:bold;vertical-align:top;">ajax</td><td style="vertical-align:top;">:</td><td><div>False</div></td></tr><tr><td style="font-weight:bold;vertical-align:top;">application</td><td style="vertical-align:top;">:</td><td><div>ji103</div></td></tr><tr><td style="font-weight:bold;vertical-align:top;">args</td><td style="vertical-align:top;">:</td><td><div><table></table></div></td></tr><tr><td style="font-weight:bold;vertical-align:top;">cid</td><td style="vertical-align:top;">:</td><td><div>None</div></td></tr><tr><td style="font-weight:bold;vertical-align:top;">client</td><td style="vertical-align:top;">:</td><td><div>46.150.97.71</div></td></tr><tr><td style="font-weight:bold;vertical-align:top;">controller</td><td style="vertical-align:top;">:</td><td><div>default</div></td></tr><tr><td style="font-weight:bold;vertical-align:top;">cookies</td><td style="vertical-align:top;">:</td><td><div><table><tr><td style="font-weight:bold;vertical-align:top;">TawkConnectionTime</td><td style="vertical-align:top;">:</td><td><div>0<table><tr><td style="font-weight:bold;vertical-align:top;">comment</td><td style="vertical-align:top;">:</td><td><div></div></td></tr><tr><td style="font-weight:bold;vertical-align:top;">domain</td><td style="vertical-align:top;">:</td><td><div></div></td></tr><tr><td style="font-weight:bold;vertical-align:top;">expires</td><td style="vertical-align:top;">:</td><td><div></div></td></tr><tr><td style="font-weight:bold;vertical-align:top;">httponly</td><td style="vertical-align:top;">:</td><td><div></div></td></tr><tr><td style="font-weight:bold;vertical-align:top;">max-age</td><td style="vertical-align:top;">:</td><td><div></div></td></tr><tr><td style="font-weight:bold;vertical-align:top;">path</td><td style="vertical-align:top;">:</td><td><div></div></td></tr><tr><td style="font-weight:bold;vertical-align:top;">secure</td><td style="vertical-align:top;">:</td><td><div></div></td></tr><tr><td style="font-weight:bold;vertical-align:top;">version</td><td style="vertical-align:top;">:</td><td><div></div></td></tr></table></div></td></tr><tr><td style="font-weight:bold;vertical-align:top;">session_id_admin</td><td style="vertical-align:top;">:</td><td><div>46.150.97.71-f42eb3c8-680b-4f4c-9684-766b2375fd6b<table><tr><td style="font-weight:bold;vertical-align:top;">comment</td><td style="vertical-align:top;">:</td><td><div></div></td></tr><tr><td style="font-weight:bold;vertical-align:top;">domain</td><td style="vertical-align:top;">:</td><td><div></div></td></tr><tr><td style="font-weight:bold;vertical-align:top;">expires</td><td style="vertical-align:top;">:</td><td><div></div></td></tr><tr><td style="font-weight:bold;vertical-align:top;">httponly</td><td style="vertical-align:top;">:</td><td><div></div></td></tr><tr><td style="font-weight:bold;vertical-align:top;">max-age</td><td style="vertical-align:top;">:</td><td><div></div></td></tr><tr><td style="font-weight:bold;vertical-align:top;">path</td><td style="vertical-align:top;">:</td><td><div></div></td></tr><tr><td style="font-weight:bold;vertical-align:top;">secure</td><td style="vertical-align:top;">:</td><td><div></div></td></tr><tr><td style="font-weight:bold;vertical-align:top;">version</td><td style="vertical-align:top;">:</td><td><div></div></td></tr></table></div></td></tr><tr><td style="font-weight:bold;vertical-align:top;">session_id_ji103</td><td style="vertical-align:top;">:</td><td><div>46.150.97.71-6a4b6863-4650-40df-b84e-0c354d9bb215<table><tr><td style="font-weight:bold;vertical-align:top;">comment</td><td style="vertical-align:top;">:</td><td><div></div></td></tr><tr><td style="font-weight:bold;vertical-align:top;">domain</td><td style="vertical-align:top;">:</td><td><div></div></td></tr><tr><td style="font-weight:bold;vertical-align:top;">expires</td><td style="vertical-align:top;">:</td><td><div></div></td></tr><tr><td style="font-weight:bold;vertical-align:top;">httponly</td><td style="vertical-align:top;">:</td><td><div></div></td></tr><tr><td style="font-weight:bold;vertical-align:top;">max-age</td><td style="vertical-align:top;">:</td><td><div></div></td></tr><tr><td style="font-weight:bold;vertical-align:top;">path</td><td style="vertical-align:top;">:</td><td><div></div></td></tr><tr><td style="font-weight:bold;vertical-align:top;">secure</td><td style="vertical-align:top;">:</td><td><div></div></td></tr><tr><td style="font-weight:bold;vertical-align:top;">version</td><td style="vertical-align:top;">:</td><td><div></div></td></tr></table></div></td></tr><tr><td style="font-weight:bold;vertical-align:top;">session_id_ji104</td><td style="vertical-align:top;">:</td><td><div>46.150.97.71-90288aad-78ea-4d9c-9f23-8a9e3945d595<table><tr><td style="font-weight:bold;vertical-align:top;">comment</td><td style="vertical-align:top;">:</td><td><div></div></td></tr><tr><td style="font-weight:bold;vertical-align:top;">domain</td><td style="vertical-align:top;">:</td><td><div></div></td></tr><tr><td style="font-weight:bold;vertical-align:top;">expires</td><td style="vertical-align:top;">:</td><td><div></div></td></tr><tr><td style="font-weight:bold;vertical-align:top;">httponly</td><td style="vertical-align:top;">:</td><td><div></div></td></tr><tr><td style="font-weight:bold;vertical-align:top;">max-age</td><td style="vertical-align:top;">:</td><td><div></div></td></tr><tr><td style="font-weight:bold;vertical-align:top;">path</td><td style="vertical-align:top;">:</td><td><div></div></td></tr><tr><td style="font-weight:bold;vertical-align:top;">secure</td><td style="vertical-align:top;">:</td><td><div></div></td></tr><tr><td style="font-weight:bold;vertical-align:top;">version</td><td style="vertical-align:top;">:</td><td><div></div></td></tr></table></div></td></tr><tr><td style="font-weight:bold;vertical-align:top;">session_id_ji105</td><td style="vertical-align:top;">:</td><td><div>46.150.97.71-1bc88f12-a01e-4895-bfde-10e8b10ae3eb<table><tr><td style="font-weight:bold;vertical-align:top;">comment</td><td style="vertical-align:top;">:</td><td><div></div></td></tr><tr><td style="font-weight:bold;vertical-align:top;">domain</td><td style="vertical-align:top;">:</td><td><div></div></td></tr><tr><td style="font-weight:bold;vertical-align:top;">expires</td><td style="vertical-align:top;">:</td><td><div></div></td></tr><tr><td style="font-weight:bold;vertical-align:top;">httponly</td><td style="vertical-align:top;">:</td><td><div></div></td></tr><tr><td style="font-weight:bold;vertical-align:top;">max-age</td><td style="vertical-align:top;">:</td><td><div></div></td></tr><tr><td style="font-weight:bold;vertical-align:top;">path</td><td style="vertical-align:top;">:</td><td><div></div></td></tr><tr><td style="font-weight:bold;vertical-align:top;">secure</td><td style="vertical-align:top;">:</td><td><div></div></td></tr><tr><td style="font-weight:bold;vertical-align:top;">version</td><td style="vertical-align:top;">:</td><td><div></div></td></tr></table></div></td></tr><tr><td style="font-weight:bold;vertical-align:top;">session_id_ji106</td><td style="vertical-align:top;">:</td><td><div>46.150.97.71-48403f1c-7395-4a96-b145-501540e59d85<table><tr><td style="font-weight:bold;vertical-align:top;">comment</td><td style="vertical-align:top;">:</td><td><div></div></td></tr><tr><td style="font-weight:bold;vertical-align:top;">domain</td><td style="vertical-align:top;">:</td><td><div></div></td></tr><tr><td style="font-weight:bold;vertical-align:top;">expires</td><td style="vertical-align:top;">:</td><td><div></div></td></tr><tr><td style="font-weight:bold;vertical-align:top;">httponly</td><td style="vertical-align:top;">:</td><td><div></div></td></tr><tr><td style="font-weight:bold;vertical-align:top;">max-age</td><td style="vertical-align:top;">:</td><td><div></div></td></tr><tr><td style="font-weight:bold;vertical-align:top;">path</td><td style="vertical-align:top;">:</td><td><div></div></td></tr><tr><td style="font-weight:bold;vertical-align:top;">secure</td><td style="vertical-align:top;">:</td><td><div></div></td></tr><tr><td style="font-weight:bold;vertical-align:top;">version</td><td style="vertical-align:top;">:</td><td><div></div></td></tr></table></div></td></tr><tr><td style="font-weight:bold;vertical-align:top;">session_id_ji107</td><td style="vertical-align:top;">:</td><td><div>46.150.97.71-6931a98e-071e-43f9-8155-30508df60d63<table><tr><td style="font-weight:bold;vertical-align:top;">comment</td><td style="vertical-align:top;">:</td><td><div></div></td></tr><tr><td style="font-weight:bold;vertical-align:top;">domain</td><td style="vertical-align:top;">:</td><td><div></div></td></tr><tr><td style="font-weight:bold;vertical-align:top;">expires</td><td style="vertical-align:top;">:</td><td><div></div></td></tr><tr><td style="font-weight:bold;vertical-align:top;">httponly</td><td style="vertical-align:top;">:</td><td><div></div></td></tr><tr><td style="font-weight:bold;vertical-align:top;">max-age</td><td style="vertical-align:top;">:</td><td><div></div></td></tr><tr><td style="font-weight:bold;vertical-align:top;">path</td><td style="vertical-align:top;">:</td><td><div></div></td></tr><tr><td style="font-weight:bold;vertical-align:top;">secure</td><td style="vertical-align:top;">:</td><td><div></div></td></tr><tr><td style="font-weight:bold;vertical-align:top;">version</td><td style="vertical-align:top;">:</td><td><div></div></td></tr></table></div></td></tr><tr><td style="font-weight:bold;vertical-align:top;">session_id_ji108</td><td style="vertical-align:top;">:</td><td><div>46.150.97.71-a8dd8a4d-794a-4c22-ba2e-9e2552ae05b2<table><tr><td style="font-weight:bold;vertical-align:top;">comment</td><td style="vertical-align:top;">:</td><td><div></div></td></tr><tr><td style="font-weight:bold;vertical-align:top;">domain</td><td style="vertical-align:top;">:</td><td><div></div></td></tr><tr><td style="font-weight:bold;vertical-align:top;">expires</td><td style="vertical-align:top;">:</td><td><div></div></td></tr><tr><td style="font-weight:bold;vertical-align:top;">httponly</td><td style="vertical-align:top;">:</td><td><div></div></td></tr><tr><td style="font-weight:bold;vertical-align:top;">max-age</td><td style="vertical-align:top;">:</td><td><div></div></td></tr><tr><td style="font-weight:bold;vertical-align:top;">path</td><td style="vertical-align:top;">:</td><td><div></div></td></tr><tr><td style="font-weight:bold;vertical-align:top;">secure</td><td style="vertical-align:top;">:</td><td><div></div></td></tr><tr><td style="font-weight:bold;vertical-align:top;">version</td><td style="vertical-align:top;">:</td><td><div></div></td></tr></table></div></td></tr><tr><td style="font-weight:bold;vertical-align:top;">session_id_ji109</td><td style="vertical-align:top;">:</td><td><div>46.150.97.71-c265e2b2-2e0e-4134-ac95-69e830eba8be<table><tr><td style="font-weight:bold;vertical-align:top;">comment</td><td style="vertical-align:top;">:</td><td><div></div></td></tr><tr><td style="font-weight:bold;vertical-align:top;">domain</td><td style="vertical-align:top;">:</td><td><div></div></td></tr><tr><td style="font-weight:bold;vertical-align:top;">expires</td><td style="vertical-align:top;">:</td><td><div></div></td></tr><tr><td style="font-weight:bold;vertical-align:top;">httponly</td><td style="vertical-align:top;">:</td><td><div></div></td></tr><tr><td style="font-weight:bold;vertical-align:top;">max-age</td><td style="vertical-align:top;">:</td><td><div></div></td></tr><tr><td style="font-weight:bold;vertical-align:top;">path</td><td style="vertical-align:top;">:</td><td><div></div></td></tr><tr><td style="font-weight:bold;vertical-align:top;">secure</td><td style="vertical-align:top;">:</td><td><div></div></td></tr><tr><td style="font-weight:bold;vertical-align:top;">version</td><td style="vertical-align:top;">:</td><td><div></div></td></tr></table></div></td></tr><tr><td style="font-weight:bold;vertical-align:top;">session_id_ji110</td><td style="vertical-align:top;">:</td><td><div>46.150.97.71-381a9941-b211-4d98-89ac-096d98e0776a<table><tr><td style="font-weight:bold;vertical-align:top;">comment</td><td style="vertical-align:top;">:</td><td><div></div></td></tr><tr><td style="font-weight:bold;vertical-align:top;">domain</td><td style="vertical-align:top;">:</td><td><div></div></td></tr><tr><td style="font-weight:bold;vertical-align:top;">expires</td><td style="vertical-align:top;">:</td><td><div></div></td></tr><tr><td style="font-weight:bold;vertical-align:top;">httponly</td><td style="vertical-align:top;">:</td><td><div></div></td></tr><tr><td style="font-weight:bold;vertical-align:top;">max-age</td><td style="vertical-align:top;">:</td><td><div></div></td></tr><tr><td style="font-weight:bold;vertical-align:top;">path</td><td style="vertical-align:top;">:</td><td><div></div></td></tr><tr><td style="font-weight:bold;vertical-align:top;">secure</td><td style="vertical-align:top;">:</td><td><div></div></td></tr><tr><td style="font-weight:bold;vertical-align:top;">version</td><td style="vertical-align:top;">:</td><td><div></div></td></tr></table></div></td></tr><tr><td style="font-weight:bold;vertical-align:top;">session_id_ji120</td><td style="vertical-align:top;">:</td><td><div>46.150.97.71-7e46f649-7fa7-4864-84aa-bea31802381c<table><tr><td style="font-weight:bold;vertical-align:top;">comment</td><td style="vertical-align:top;">:</td><td><div></div></td></tr><tr><td style="font-weight:bold;vertical-align:top;">domain</td><td style="vertical-align:top;">:</td><td><div></div></td></tr><tr><td style="font-weight:bold;vertical-align:top;">expires</td><td style="vertical-align:top;">:</td><td><div></div></td></tr><tr><td style="font-weight:bold;vertical-align:top;">httponly</td><td style="vertical-align:top;">:</td><td><div></div></td></tr><tr><td style="font-weight:bold;vertical-align:top;">max-age</td><td style="vertical-align:top;">:</td><td><div></div></td></tr><tr><td style="font-weight:bold;vertical-align:top;">path</td><td style="vertical-align:top;">:</td><td><div></div></td></tr><tr><td style="font-weight:bold;vertical-align:top;">secure</td><td style="vertical-align:top;">:</td><td><div></div></td></tr><tr><td style="font-weight:bold;vertical-align:top;">version</td><td style="vertical-align:top;">:</td><td><div></div></td></tr></table></div></td></tr><tr><td style="font-weight:bold;vertical-align:top;">session_id_ji130</td><td style="vertical-align:top;">:</td><td><div>46.150.97.71-6ca5deef-aaa5-4437-b588-61dab6d1bd9c<table><tr><td style="font-weight:bold;vertical-align:top;">comment</td><td style="vertical-align:top;">:</td><td><div></div></td></tr><tr><td style="font-weight:bold;vertical-align:top;">domain</td><td style="vertical-align:top;">:</td><td><div></div></td></tr><tr><td style="font-weight:bold;vertical-align:top;">expires</td><td style="vertical-align:top;">:</td><td><div></div></td></tr><tr><td style="font-weight:bold;vertical-align:top;">httponly</td><td style="vertical-align:top;">:</td><td><div></div></td></tr><tr><td style="font-weight:bold;vertical-align:top;">max-age</td><td style="vertical-align:top;">:</td><td><div></div></td></tr><tr><td style="font-weight:bold;vertical-align:top;">path</td><td style="vertical-align:top;">:</td><td><div></div></td></tr><tr><td style="font-weight:bold;vertical-align:top;">secure</td><td style="vertical-align:top;">:</td><td><div></div></td></tr><tr><td style="font-weight:bold;vertical-align:top;">version</td><td style="vertical-align:top;">:</td><td><div></div></td></tr></table></div></td></tr><tr><td style="font-weight:bold;vertical-align:top;">session_id_ji161</td><td style="vertical-align:top;">:</td><td><div>46.150.97.71-7b6ac82f-a5c8-41be-a00d-70bb679b82d8<table><tr><td style="font-weight:bold;vertical-align:top;">comment</td><td style="vertical-align:top;">:</td><td><div></div></td></tr><tr><td style="font-weight:bold;vertical-align:top;">domain</td><td style="vertical-align:top;">:</td><td><div></div></td></tr><tr><td style="font-weight:bold;vertical-align:top;">expires</td><td style="vertical-align:top;">:</td><td><div></div></td></tr><tr><td style="font-weight:bold;vertical-align:top;">httponly</td><td style="vertical-align:top;">:</td><td><div></div></td></tr><tr><td style="font-weight:bold;vertical-align:top;">max-age</td><td style="vertical-align:top;">:</td><td><div></div></td></tr><tr><td style="font-weight:bold;vertical-align:top;">path</td><td style="vertical-align:top;">:</td><td><div></div></td></tr><tr><td style="font-weight:bold;vertical-align:top;">secure</td><td style="vertical-align:top;">:</td><td><div></div></td></tr><tr><td style="font-weight:bold;vertical-align:top;">version</td><td style="vertical-align:top;">:</td><td><div></div></td></tr></table></div></td></tr><tr><td style="font-weight:bold;vertical-align:top;">session_id_ji162</td><td style="vertical-align:top;">:</td><td><div>46.150.97.71-113a2178-b3c4-46b3-b27a-2c82bc8608ee<table><tr><td style="font-weight:bold;vertical-align:top;">comment</td><td style="vertical-align:top;">:</td><td><div></div></td></tr><tr><td style="font-weight:bold;vertical-align:top;">domain</td><td style="vertical-align:top;">:</td><td><div></div></td></tr><tr><td style="font-weight:bold;vertical-align:top;">expires</td><td style="vertical-align:top;">:</td><td><div></div></td></tr><tr><td style="font-weight:bold;vertical-align:top;">httponly</td><td style="vertical-align:top;">:</td><td><div></div></td></tr><tr><td style="font-weight:bold;vertical-align:top;">max-age</td><td style="vertical-align:top;">:</td><td><div></div></td></tr><tr><td style="font-weight:bold;vertical-align:top;">path</td><td style="vertical-align:top;">:</td><td><div></div></td></tr><tr><td style="font-weight:bold;vertical-align:top;">secure</td><td style="vertical-align:top;">:</td><td><div></div></td></tr><tr><td style="font-weight:bold;vertical-align:top;">version</td><td style="vertical-align:top;">:</td><td><div></div></td></tr></table></div></td></tr><tr><td style="font-weight:bold;vertical-align:top;">session_id_ji163</td><td style="vertical-align:top;">:</td><td><div>46.150.97.71-84b20e01-5fd1-4ed1-bc27-ebf19d1d900b<table><tr><td style="font-weight:bold;vertical-align:top;">comment</td><td style="vertical-align:top;">:</td><td><div></div></td></tr><tr><td style="font-weight:bold;vertical-align:top;">domain</td><td style="vertical-align:top;">:</td><td><div></div></td></tr><tr><td style="font-weight:bold;vertical-align:top;">expires</td><td style="vertical-align:top;">:</td><td><div></div></td></tr><tr><td style="font-weight:bold;vertical-align:top;">httponly</td><td style="vertical-align:top;">:</td><td><div></div></td></tr><tr><td style="font-weight:bold;vertical-align:top;">max-age</td><td style="vertical-align:top;">:</td><td><div></div></td></tr><tr><td style="font-weight:bold;vertical-align:top;">path</td><td style="vertical-align:top;">:</td><td><div></div></td></tr><tr><td style="font-weight:bold;vertical-align:top;">secure</td><td style="vertical-align:top;">:</td><td><div></div></td></tr><tr><td style="font-weight:bold;vertical-align:top;">version</td><td style="vertical-align:top;">:</td><td><div></div></td></tr></table></div></td></tr><tr><td style="font-weight:bold;vertical-align:top;">session_id_ji164</td><td style="vertical-align:top;">:</td><td><div>46.150.97.71-32106685-559d-423c-a86b-8621f6351319<table><tr><td style="font-weight:bold;vertical-align:top;">comment</td><td style="vertical-align:top;">:</td><td><div></div></td></tr><tr><td style="font-weight:bold;vertical-align:top;">domain</td><td style="vertical-align:top;">:</td><td><div></div></td></tr><tr><td style="font-weight:bold;vertical-align:top;">expires</td><td style="vertical-align:top;">:</td><td><div></div></td></tr><tr><td style="font-weight:bold;vertical-align:top;">httponly</td><td style="vertical-align:top;">:</td><td><div></div></td></tr><tr><td style="font-weight:bold;vertical-align:top;">max-age</td><td style="vertical-align:top;">:</td><td><div></div></td></tr><tr><td style="font-weight:bold;vertical-align:top;">path</td><td style="vertical-align:top;">:</td><td><div></div></td></tr><tr><td style="font-weight:bold;vertical-align:top;">secure</td><td style="vertical-align:top;">:</td><td><div></div></td></tr><tr><td style="font-weight:bold;vertical-align:top;">version</td><td style="vertical-align:top;">:</td><td><div></div></td></tr></table></div></td></tr><tr><td style="font-weight:bold;vertical-align:top;">session_id_ji165</td><td style="vertical-align:top;">:</td><td><div>46.150.97.71-24631871-6f50-4b59-a69f-b56dfece2721<table><tr><td style="font-weight:bold;vertical-align:top;">comment</td><td style="vertical-align:top;">:</td><td><div></div></td></tr><tr><td style="font-weight:bold;vertical-align:top;">domain</td><td style="vertical-align:top;">:</td><td><div></div></td></tr><tr><td style="font-weight:bold;vertical-align:top;">expires</td><td style="vertical-align:top;">:</td><td><div></div></td></tr><tr><td style="font-weight:bold;vertical-align:top;">httponly</td><td style="vertical-align:top;">:</td><td><div></div></td></tr><tr><td style="font-weight:bold;vertical-align:top;">max-age</td><td style="vertical-align:top;">:</td><td><div></div></td></tr><tr><td style="font-weight:bold;vertical-align:top;">path</td><td style="vertical-align:top;">:</td><td><div></div></td></tr><tr><td style="font-weight:bold;vertical-align:top;">secure</td><td style="vertical-align:top;">:</td><td><div></div></td></tr><tr><td style="font-weight:bold;vertical-align:top;">version</td><td style="vertical-align:top;">:</td><td><div></div></td></tr></table></div></td></tr><tr><td style="font-weight:bold;vertical-align:top;">session_id_ji190</td><td style="vertical-align:top;">:</td><td><div>46.150.97.71-63835a58-3665-44cf-a09d-357809600f86<table><tr><td style="font-weight:bold;vertical-align:top;">comment</td><td style="vertical-align:top;">:</td><td><div></div></td></tr><tr><td style="font-weight:bold;vertical-align:top;">domain</td><td style="vertical-align:top;">:</td><td><div></div></td></tr><tr><td style="font-weight:bold;vertical-align:top;">expires</td><td style="vertical-align:top;">:</td><td><div></div></td></tr><tr><td style="font-weight:bold;vertical-align:top;">httponly</td><td style="vertical-align:top;">:</td><td><div></div></td></tr><tr><td style="font-weight:bold;vertical-align:top;">max-age</td><td style="vertical-align:top;">:</td><td><div></div></td></tr><tr><td style="font-weight:bold;vertical-align:top;">path</td><td style="vertical-align:top;">:</td><td><div></div></td></tr><tr><td style="font-weight:bold;vertical-align:top;">secure</td><td style="vertical-align:top;">:</td><td><div></div></td></tr><tr><td style="font-weight:bold;vertical-align:top;">version</td><td style="vertical-align:top;">:</td><td><div></div></td></tr></table></div></td></tr><tr><td style="font-weight:bold;vertical-align:top;">session_id_ji191</td><td style="vertical-align:top;">:</td><td><div>46.150.97.71-93732403-454b-4e63-bf24-dd730d98aeed<table><tr><td style="font-weight:bold;vertical-align:top;">comment</td><td style="vertical-align:top;">:</td><td><div></div></td></tr><tr><td style="font-weight:bold;vertical-align:top;">domain</td><td style="vertical-align:top;">:</td><td><div></div></td></tr><tr><td style="font-weight:bold;vertical-align:top;">expires</td><td style="vertical-align:top;">:</td><td><div></div></td></tr><tr><td style="font-weight:bold;vertical-align:top;">httponly</td><td style="vertical-align:top;">:</td><td><div></div></td></tr><tr><td style="font-weight:bold;vertical-align:top;">max-age</td><td style="vertical-align:top;">:</td><td><div></div></td></tr><tr><td style="font-weight:bold;vertical-align:top;">path</td><td style="vertical-align:top;">:</td><td><div></div></td></tr><tr><td style="font-weight:bold;vertical-align:top;">secure</td><td style="vertical-align:top;">:</td><td><div></div></td></tr><tr><td style="font-weight:bold;vertical-align:top;">version</td><td style="vertical-align:top;">:</td><td><div></div></td></tr></table></div></td></tr><tr><td style="font-weight:bold;vertical-align:top;">session_id_ji192</td><td style="vertical-align:top;">:</td><td><div>46.150.97.71-a294c0ef-d3aa-4514-a859-d1e79bf8504d<table><tr><td style="font-weight:bold;vertical-align:top;">comment</td><td style="vertical-align:top;">:</td><td><div></div></td></tr><tr><td style="font-weight:bold;vertical-align:top;">domain</td><td style="vertical-align:top;">:</td><td><div></div></td></tr><tr><td style="font-weight:bold;vertical-align:top;">expires</td><td style="vertical-align:top;">:</td><td><div></div></td></tr><tr><td style="font-weight:bold;vertical-align:top;">httponly</td><td style="vertical-align:top;">:</td><td><div></div></td></tr><tr><td style="font-weight:bold;vertical-align:top;">max-age</td><td style="vertical-align:top;">:</td><td><div></div></td></tr><tr><td style="font-weight:bold;vertical-align:top;">path</td><td style="vertical-align:top;">:</td><td><div></div></td></tr><tr><td style="font-weight:bold;vertical-align:top;">secure</td><td style="vertical-align:top;">:</td><td><div></div></td></tr><tr><td style="font-weight:bold;vertical-align:top;">version</td><td style="vertical-align:top;">:</td><td><div></div></td></tr></table></div></td></tr><tr><td style="font-weight:bold;vertical-align:top;">session_id_ji193</td><td style="vertical-align:top;">:</td><td><div>46.150.97.71-1e47e830-d011-49e7-bd01-aa239eb60711<table><tr><td style="font-weight:bold;vertical-align:top;">comment</td><td style="vertical-align:top;">:</td><td><div></div></td></tr><tr><td style="font-weight:bold;vertical-align:top;">domain</td><td style="vertical-align:top;">:</td><td><div></div></td></tr><tr><td style="font-weight:bold;vertical-align:top;">expires</td><td style="vertical-align:top;">:</td><td><div></div></td></tr><tr><td style="font-weight:bold;vertical-align:top;">httponly</td><td style="vertical-align:top;">:</td><td><div></div></td></tr><tr><td style="font-weight:bold;vertical-align:top;">max-age</td><td style="vertical-align:top;">:</td><td><div></div></td></tr><tr><td style="font-weight:bold;vertical-align:top;">path</td><td style="vertical-align:top;">:</td><td><div></div></td></tr><tr><td style="font-weight:bold;vertical-align:top;">secure</td><td style="vertical-align:top;">:</td><td><div></div></td></tr><tr><td style="font-weight:bold;vertical-align:top;">version</td><td style="vertical-align:top;">:</td><td><div></div></td></tr></table></div></td></tr><tr><td style="font-weight:bold;vertical-align:top;">session_id_ji194</td><td style="vertical-align:top;">:</td><td><div>46.150.97.71-9b2cbbb3-2339-45b3-a921-d7bde54f39f6<table><tr><td style="font-weight:bold;vertical-align:top;">comment</td><td style="vertical-align:top;">:</td><td><div></div></td></tr><tr><td style="font-weight:bold;vertical-align:top;">domain</td><td style="vertical-align:top;">:</td><td><div></div></td></tr><tr><td style="font-weight:bold;vertical-align:top;">expires</td><td style="vertical-align:top;">:</td><td><div></div></td></tr><tr><td style="font-weight:bold;vertical-align:top;">httponly</td><td style="vertical-align:top;">:</td><td><div></div></td></tr><tr><td style="font-weight:bold;vertical-align:top;">max-age</td><td style="vertical-align:top;">:</td><td><div></div></td></tr><tr><td style="font-weight:bold;vertical-align:top;">path</td><td style="vertical-align:top;">:</td><td><div></div></td></tr><tr><td style="font-weight:bold;vertical-align:top;">secure</td><td style="vertical-align:top;">:</td><td><div></div></td></tr><tr><td style="font-weight:bold;vertical-align:top;">version</td><td style="vertical-align:top;">:</td><td><div></div></td></tr></table></div></td></tr><tr><td style="font-weight:bold;vertical-align:top;">session_id_ji195</td><td style="vertical-align:top;">:</td><td><div>46.150.97.71-e6751112-42b1-4373-85f8-730efa61e4ca<table><tr><td style="font-weight:bold;vertical-align:top;">comment</td><td style="vertical-align:top;">:</td><td><div></div></td></tr><tr><td style="font-weight:bold;vertical-align:top;">domain</td><td style="vertical-align:top;">:</td><td><div></div></td></tr><tr><td style="font-weight:bold;vertical-align:top;">expires</td><td style="vertical-align:top;">:</td><td><div></div></td></tr><tr><td style="font-weight:bold;vertical-align:top;">httponly</td><td style="vertical-align:top;">:</td><td><div></div></td></tr><tr><td style="font-weight:bold;vertical-align:top;">max-age</td><td style="vertical-align:top;">:</td><td><div></div></td></tr><tr><td style="font-weight:bold;vertical-align:top;">path</td><td style="vertical-align:top;">:</td><td><div></div></td></tr><tr><td style="font-weight:bold;vertical-align:top;">secure</td><td style="vertical-align:top;">:</td><td><div></div></td></tr><tr><td style="font-weight:bold;vertical-align:top;">version</td><td style="vertical-align:top;">:</td><td><div></div></td></tr></table></div></td></tr><tr><td style="font-weight:bold;vertical-align:top;">session_id_newlic</td><td style="vertical-align:top;">:</td><td><div>46.150.97.71-e6b9d2a4-b22e-4073-9828-cd53a2200492<table><tr><td style="font-weight:bold;vertical-align:top;">comment</td><td style="vertical-align:top;">:</td><td><div></div></td></tr><tr><td style="font-weight:bold;vertical-align:top;">domain</td><td style="vertical-align:top;">:</td><td><div></div></td></tr><tr><td style="font-weight:bold;vertical-align:top;">expires</td><td style="vertical-align:top;">:</td><td><div></div></td></tr><tr><td style="font-weight:bold;vertical-align:top;">httponly</td><td style="vertical-align:top;">:</td><td><div></div></td></tr><tr><td style="font-weight:bold;vertical-align:top;">max-age</td><td style="vertical-align:top;">:</td><td><div></div></td></tr><tr><td style="font-weight:bold;vertical-align:top;">path</td><td style="vertical-align:top;">:</td><td><div></div></td></tr><tr><td style="font-weight:bold;vertical-align:top;">secure</td><td style="vertical-align:top;">:</td><td><div></div></td></tr><tr><td style="font-weight:bold;vertical-align:top;">version</td><td style="vertical-align:top;">:</td><td><div></div></td></tr></table></div></td></tr><tr><td style="font-weight:bold;vertical-align:top;">session_id_up1</td><td style="vertical-align:top;">:</td><td><div>46.150.97.71-1a5120ec-a44c-4fef-b917-6429ea465df2<table><tr><td style="font-weight:bold;vertical-align:top;">comment</td><td style="vertical-align:top;">:</td><td><div></div></td></tr><tr><td style="font-weight:bold;vertical-align:top;">domain</td><td style="vertical-align:top;">:</td><td><div></div></td></tr><tr><td style="font-weight:bold;vertical-align:top;">expires</td><td style="vertical-align:top;">:</td><td><div></div></td></tr><tr><td style="font-weight:bold;vertical-align:top;">httponly</td><td style="vertical-align:top;">:</td><td><div></div></td></tr><tr><td style="font-weight:bold;vertical-align:top;">max-age</td><td style="vertical-align:top;">:</td><td><div></div></td></tr><tr><td style="font-weight:bold;vertical-align:top;">path</td><td style="vertical-align:top;">:</td><td><div></div></td></tr><tr><td style="font-weight:bold;vertical-align:top;">secure</td><td style="vertical-align:top;">:</td><td><div></div></td></tr><tr><td style="font-weight:bold;vertical-align:top;">version</td><td style="vertical-align:top;">:</td><td><div></div></td></tr></table></div></td></tr><tr><td style="font-weight:bold;vertical-align:top;">session_id_welcome</td><td style="vertical-align:top;">:</td><td><div>46.150.97.71-57f53b68-077f-47dd-8857-322892f61c60<table><tr><td style="font-weight:bold;vertical-align:top;">comment</td><td style="vertical-align:top;">:</td><td><div></div></td></tr><tr><td style="font-weight:bold;vertical-align:top;">domain</td><td style="vertical-align:top;">:</td><td><div></div></td></tr><tr><td style="font-weight:bold;vertical-align:top;">expires</td><td style="vertical-align:top;">:</td><td><div></div></td></tr><tr><td style="font-weight:bold;vertical-align:top;">httponly</td><td style="vertical-align:top;">:</td><td><div></div></td></tr><tr><td style="font-weight:bold;vertical-align:top;">max-age</td><td style="vertical-align:top;">:</td><td><div></div></td></tr><tr><td style="font-weight:bold;vertical-align:top;">path</td><td style="vertical-align:top;">:</td><td><div></div></td></tr><tr><td style="font-weight:bold;vertical-align:top;">secure</td><td style="vertical-align:top;">:</td><td><div></div></td></tr><tr><td style="font-weight:bold;vertical-align:top;">version</td><td style="vertical-align:top;">:</td><td><div></div></td></tr></table></div></td></tr></table></div></td></tr><tr><td style="font-weight:bold;vertical-align:top;">env</td><td style="vertical-align:top;">:</td><td><div><table><tr><td style="font-weight:bold;vertical-align:top;">HTTP_ACCEPT</td><td style="vertical-align:top;">:</td><td><div>text/html,application/xhtml+xml,application/xml;q=0.9,*/*;q=0.8</div></td></tr><tr><td style="font-weight:bold;vertical-align:top;">HTTP_ACCEPT_ENCODING</td><td style="vertical-align:top;">:</td><td><div>gzip, deflate, br</div></td></tr><tr><td style="font-weight:bold;vertical-align:top;">HTTP_ACCEPT_LANGUAGE</td><td style="vertical-align:top;">:</td><td><div>en-US,en;q=0.5</div></td></tr><tr><td style="font-weight:bold;vertical-align:top;">HTTP_CONNECTION</td><td style="vertical-align:top;">:</td><td><div>close</div></td></tr><tr><td style="font-weight:bold;vertical-align:top;">HTTP_COOKIE</td><td style="vertical-align:top;">:</td><td><div>__tawkuuid=e::sun.minfindnr.ru::zgaZLr6ErINWW+M6+Nwpnw0MUhbnNYvXlcTouar0m6Dsph5y7C+JAr/39c47GhTu::2; session_id_welcome=46.150.97.71-57f53b68-077f-47dd-8857-322892f61c60; session_id_ji191=46.150.97.71-93732403-454b-4e63-bf24-dd730d98aeed; session_id_newlic=46.150.97.71-e6b9d2a4-b22e-4073-9828-cd53a2200492; session_id_ji161=46.150.97.71-7b6ac82f-a5c8-41be-a00d-70bb679b82d8; session_id_ji162=46.150.97.71-113a2178-b3c4-46b3-b27a-2c82bc8608ee; session_id_ji163=46.150.97.71-84b20e01-5fd1-4ed1-bc27-ebf19d1d900b; session_id_ji164=46.150.97.71-32106685-559d-423c-a86b-8621f6351319; session_id_ji190=46.150.97.71-63835a58-3665-44cf-a09d-357809600f86; session_id_ji105=46.150.97.71-1bc88f12-a01e-4895-bfde-10e8b10ae3eb; TawkConnectionTime=0; session_id_ji192=46.150.97.71-a294c0ef-d3aa-4514-a859-d1e79bf8504d; session_id_ji193=46.150.97.71-1e47e830-d011-49e7-bd01-aa239eb60711; session_id_up1=46.150.97.71-1a5120ec-a44c-4fef-b917-6429ea465df2; session_id_ji130=46.150.97.71-6ca5deef-aaa5-4437-b588-61dab6d1bd9c; session_id_ji103=46.150.97.71-6a4b6863-4650-40df-b84e-0c354d9bb215; session_id_admin=46.150.97.71-f42eb3c8-680b-4f4c-9684-766b2375fd6b; session_id_ji120=46.150.97.71-7e46f649-7fa7-4864-84aa-bea31802381c; session_id_ji104=46.150.97.71-90288aad-78ea-4d9c-9f23-8a9e3945d595; session_id_ji165=46.150.97.71-24631871-6f50-4b59-a69f-b56dfece2721; session_id_ji106=46.150.97.71-48403f1c-7395-4a96-b145-501540e59d85; session_id_ji107=46.150.97.71-6931a98e-071e-43f9-8155-30508df60d63; session_id_ji108=46.150.97.71-a8dd8a4d-794a-4c22-ba2e-9e2552ae05b2; session_id_ji109=46.150.97.71-c265e2b2-2e0e-4134-ac95-69e830eba8be; session_id_ji110=46.150.97.71-381a9941-b211-4d98-89ac-096d98e0776a; session_id_ji194=46.150.97.71-9b2cbbb3-2339-45b3-a921-d7bde54f39f6; session_id_ji195=46.150.97.71-e6751112-42b1-4373-85f8-730efa61e4ca</div></td></tr><tr><td style="font-weight:bold;vertical-align:top;">HTTP_HOST</td><td style="vertical-align:top;">:</td><td><div>sun.minfindnr.ru</div></td></tr><tr><td style="font-weight:bold;vertical-align:top;">HTTP_REFERER</td><td style="vertical-align:top;">:</td><td><div>https://sun.minfindnr.ru/ji103</div></td></tr><tr><td style="font-weight:bold;vertical-align:top;">HTTP_UPGRADE_INSECURE_REQUESTS</td><td style="vertical-align:top;">:</td><td><div>1</div></td></tr><tr><td style="font-weight:bold;vertical-align:top;">HTTP_USER_AGENT</td><td style="vertical-align:top;">:</td><td><div>Mozilla/5.0 (Windows NT 10.0; Win64; x64; rv:66.0) Gecko/20100101 Firefox/66.0</div></td></tr><tr><td style="font-weight:bold;vertical-align:top;">HTTP_X_FORWARDED_BY</td><td style="vertical-align:top;">:</td><td><div>92.242.125.188:443</div></td></tr><tr><td style="font-weight:bold;vertical-align:top;">HTTP_X_FORWARDED_FOR</td><td style="vertical-align:top;">:</td><td><div>46.150.97.71</div></td></tr><tr><td style="font-weight:bold;vertical-align:top;">HTTP_X_FORWARDED_PROTO</td><td style="vertical-align:top;">:</td><td><div>https</div></td></tr><tr><td style="font-weight:bold;vertical-align:top;">HTTP_X_FORWARDED_SSL</td><td style="vertical-align:top;">:</td><td><div>on</div></td></tr><tr><td style="font-weight:bold;vertical-align:top;">HTTP_X_REAL_IP</td><td style="vertical-align:top;">:</td><td><div>46.150.97.71</div></td></tr><tr><td style="font-weight:bold;vertical-align:top;">PATH_INFO</td><td style="vertical-align:top;">:</td><td><div>/ji103/default/tables</div></td></tr><tr><td style="font-weight:bold;vertical-align:top;">QUERY_STRING</td><td style="vertical-align:top;">:</td><td><div></div></td></tr><tr><td style="font-weight:bold;vertical-align:top;">RAW_URI</td><td style="vertical-align:top;">:</td><td><div>/ji103/default/tables</div></td></tr><tr><td style="font-weight:bold;vertical-align:top;">REMOTE_ADDR</td><td style="vertical-align:top;">:</td><td><div></div></td></tr><tr><td style="font-weight:bold;vertical-align:top;">REQUEST_METHOD</td><td style="vertical-align:top;">:</td><td><div>GET</div></td></tr><tr><td style="font-weight:bold;vertical-align:top;">SCRIPT_NAME</td><td style="vertical-align:top;">:</td><td><div></div></td></tr><tr><td style="font-weight:bold;vertical-align:top;">SERVER_NAME</td><td style="vertical-align:top;">:</td><td><div>sun.minfindnr.ru</div></td></tr><tr><td style="font-weight:bold;vertical-align:top;">SERVER_PORT</td><td style="vertical-align:top;">:</td><td><div>443</div></td></tr><tr><td style="font-weight:bold;vertical-align:top;">SERVER_PROTOCOL</td><td style="vertical-align:top;">:</td><td><div>HTTP/1.0</div></td></tr><tr><td style="font-weight:bold;vertical-align:top;">SERVER_SOFTWARE</td><td style="vertical-align:top;">:</td><td><div>gunicorn/19.1.0</div></td></tr><tr><td style="font-weight:bold;vertical-align:top;">app_folders</td><td style="vertical-align:top;">:</td><td><div>set([&#x27;/home/w2p/web2py/applications/ji122/&#x27;, &#x27;/home/w2p/web2py/applications/ji103/&#x27;, &#x27;/home/w2p/web2py/applications/ji142/&#x27;, &#x27;/home/w2p/web2py/applications/ji101/&#x27;, &#x27;/home/w2p/web2py/applications/ji150/&#x27;, &#x27;/home/w2p/web2py/applications/ji146/&#x27;, &#x27;/home/w2p/web2py/applications/ji164/&#x27;, &#x27;/home/w2p/web2py/applications/ji105/&#x27;, &#x27;/home/w2p/web2py/applications/ji151/&#x27;, &#x27;/home/w2p/web2py/applications/welcome/&#x27;, &#x27;/home/w2p/web2py/applications/admin/&#x27;, &#x27;/home/w2p/web2py/applications/newlic/&#x27;, &#x27;/home/w2p/web2py/applications/ji195/&#x27;, &#x27;/home/w2p/web2py/applications/ji162/&#x27;, &#x27;/home/w2p/web2py/applications/ji191/&#x27;, &#x27;/home/w2p/web2py/applications/ji166/&#x27;, &#x27;/home/w2p/web2py/applications/ji120/&#x27;, &#x27;/home/w2p/web2py/applications/lic/&#x27;, &#x27;/home/w2p/web2py/applications/ji143/&#x27;, &#x27;/home/w2p/web2py/applications/ji138/&#x27;, &#x27;/home/w2p/web2py/applications/av031/&#x27;, &#x27;/home/w2p/web2py/applications/ji130/&#x27;, &#x27;/home/w2p/web2py/applications/ji127/&#x27;, &#x27;/home/w2p/web2py/applications/ji100/&#x27;, &#x27;/home/w2p/web2py/applications/ji132/&#x27;, &#x27;/home/w2p/web2py/applications/ji163/&#x27;, &#x27;/home/w2p/web2py/applications/ji190/&#x27;, &#x27;/home/w2p/web2py/applications/up1/&#x27;, &#x27;/home/w2p/web2py/applications/ji192/&#x27;, &#x27;/home/w2p/web2py/applications/ji161/&#x27;, &#x27;/home/w2p/web2py/applications/ji109/&#x27;])</div></td></tr><tr><td style="font-weight:bold;vertical-align:top;">applications_parent</td><td style="vertical-align:top;">:</td><td><div>/home/w2p/web2py</div></td></tr><tr><td style="font-weight:bold;vertical-align:top;">db_sessions</td><td style="vertical-align:top;">:</td><td><div>set([])</div></td></tr><tr><td style="font-weight:bold;vertical-align:top;">debugging</td><td style="vertical-align:top;">:</td><td><div>False</div></td></tr><tr><td style="font-weight:bold;vertical-align:top;">gluon_parent</td><td style="vertical-align:top;">:</td><td><div>/home/w2p/web2py</div></td></tr><tr><td style="font-weight:bold;vertical-align:top;">gunicorn.socket</td><td style="vertical-align:top;">:</td><td><div>&lt;socket._socketobject object at 0x7f4d6e685910&gt;</div></td></tr><tr><td style="font-weight:bold;vertical-align:top;">gunicorn_socket</td><td style="vertical-align:top;">:</td><td><div>&lt;socket._socketobject object at 0x7f4d6e685910&gt;</div></td></tr><tr><td style="font-weight:bold;vertical-align:top;">http_accept</td><td style="vertical-align:top;">:</td><td><div>text/html,application/xhtml+xml,application/xml;q=0.9,*/*;q=0.8</div></td></tr><tr><td style="font-weight:bold;vertical-align:top;">http_accept_encoding</td><td style="vertical-align:top;">:</td><td><div>gzip, deflate, br</div></td></tr><tr><td style="font-weight:bold;vertical-align:top;">http_accept_language</td><td style="vertical-align:top;">:</td><td><div>en-US,en;q=0.5</div></td></tr><tr><td style="font-weight:bold;vertical-align:top;">http_connection</td><td style="vertical-align:top;">:</td><td><div>close</div></td></tr><tr><td style="font-weight:bold;vertical-align:top;">http_cookie</td><td style="vertical-align:top;">:</td><td><div>__tawkuuid=e::sun.minfindnr.ru::zgaZLr6ErINWW+M6+Nwpnw0MUhbnNYvXlcTouar0m6Dsph5y7C+JAr/39c47GhTu::2; session_id_welcome=46.150.97.71-57f53b68-077f-47dd-8857-322892f61c60; session_id_ji191=46.150.97.71-93732403-454b-4e63-bf24-dd730d98aeed; session_id_newlic=46.150.97.71-e6b9d2a4-b22e-4073-9828-cd53a2200492; session_id_ji161=46.150.97.71-7b6ac82f-a5c8-41be-a00d-70bb679b82d8; session_id_ji162=46.150.97.71-113a2178-b3c4-46b3-b27a-2c82bc8608ee; session_id_ji163=46.150.97.71-84b20e01-5fd1-4ed1-bc27-ebf19d1d900b; session_id_ji164=46.150.97.71-32106685-559d-423c-a86b-8621f6351319; session_id_ji190=46.150.97.71-63835a58-3665-44cf-a09d-357809600f86; session_id_ji105=46.150.97.71-1bc88f12-a01e-4895-bfde-10e8b10ae3eb; TawkConnectionTime=0; session_id_ji192=46.150.97.71-a294c0ef-d3aa-4514-a859-d1e79bf8504d; session_id_ji193=46.150.97.71-1e47e830-d011-49e7-bd01-aa239eb60711; session_id_up1=46.150.97.71-1a5120ec-a44c-4fef-b917-6429ea465df2; session_id_ji130=46.150.97.71-6ca5deef-aaa5-4437-b588-61dab6d1bd9c; session_id_ji103=46.150.97.71-6a4b6863-4650-40df-b84e-0c354d9bb215; session_id_admin=46.150.97.71-f42eb3c8-680b-4f4c-9684-766b2375fd6b; session_id_ji120=46.150.97.71-7e46f649-7fa7-4864-84aa-bea31802381c; session_id_ji104=46.150.97.71-90288aad-78ea-4d9c-9f23-8a9e3945d595; session_id_ji165=46.150.97.71-24631871-6f50-4b59-a69f-b56dfece2721; session_id_ji106=46.150.97.71-48403f1c-7395-4a96-b145-501540e59d85; session_id_ji107=46.150.97.71-6931a98e-071e-43f9-8155-30508df60d63; session_id_ji108=46.150.97.71-a8dd8a4d-794a-4c22-ba2e-9e2552ae05b2; session_id_ji109=46.150.97.71-c265e2b2-2e0e-4134-ac95-69e830eba8be; session_id_ji110=46.150.97.71-381a9941-b211-4d98-89ac-096d98e0776a; session_id_ji194=46.150.97.71-9b2cbbb3-2339-45b3-a921-d7bde54f39f6; session_id_ji195=46.150.97.71-e6751112-42b1-4373-85f8-730efa61e4ca</div></td></tr><tr><td style="font-weight:bold;vertical-align:top;">http_host</td><td style="vertical-align:top;">:</td><td><div>sun.minfindnr.ru</div></td></tr><tr><td style="font-weight:bold;vertical-align:top;">http_referer</td><td style="vertical-align:top;">:</td><td><div>https://sun.minfindnr.ru/ji103</div></td></tr><tr><td style="font-weight:bold;vertical-align:top;">http_upgrade_insecure_requests</td><td style="vertical-align:top;">:</td><td><div>1</div></td></tr><tr><td style="font-weight:bold;vertical-align:top;">http_user_agent</td><td style="vertical-align:top;">:</td><td><div>Mozilla/5.0 (Windows NT 10.0; Win64; x64; rv:66.0) Gecko/20100101 Firefox/66.0</div></td></tr><tr><td style="font-weight:bold;vertical-align:top;">http_x_forwarded_by</td><td style="vertical-align:top;">:</td><td><div>92.242.125.188:443</div></td></tr><tr><td style="font-weight:bold;vertical-align:top;">http_x_forwarded_for</td><td style="vertical-align:top;">:</td><td><div>46.150.97.71</div></td></tr><tr><td style="font-weight:bold;vertical-align:top;">http_x_forwarded_proto</td><td style="vertical-align:top;">:</td><td><div>https</div></td></tr><tr><td style="font-weight:bold;vertical-align:top;">http_x_forwarded_ssl</td><td style="vertical-align:top;">:</td><td><div>on</div></td></tr><tr><td style="font-weight:bold;vertical-align:top;">http_x_real_ip</td><td style="vertical-align:top;">:</td><td><div>46.150.97.71</div></td></tr><tr><td style="font-weight:bold;vertical-align:top;">is_jython</td><td style="vertical-align:top;">:</td><td><div>False</div></td></tr><tr><td style="font-weight:bold;vertical-align:top;">is_py2</td><td style="vertical-align:top;">:</td><td><div>True</div></td></tr><tr><td style="font-weight:bold;vertical-align:top;">is_pypy</td><td style="vertical-align:top;">:</td><td><div>False</div></td></tr><tr><td style="font-weight:bold;vertical-align:top;">is_source</td><td style="vertical-align:top;">:</td><td><div>True</div></td></tr><tr><td style="font-weight:bold;vertical-align:top;">local_hosts</td><td style="vertical-align:top;">:</td><td><div><table><tr><td><div>sun.minfindnr.ru</div></td></tr><tr><td><div>::1</div></td></tr><tr><td><div>92.242.125.188</div></td></tr><tr><td><div>::ffff:127.0.0.1</div></td></tr><tr><td><div>127.0.0.1</div></td></tr></table></div></td></tr><tr><td style="font-weight:bold;vertical-align:top;">path_info</td><td style="vertical-align:top;">:</td><td><div>/ji103/default/tables</div></td></tr><tr><td style="font-weight:bold;vertical-align:top;">query_string</td><td style="vertical-align:top;">:</td><td><div></div></td></tr><tr><td style="font-weight:bold;vertical-align:top;">raw_uri</td><td style="vertical-align:top;">:</td><td><div>/ji103/default/tables</div></td></tr><tr><td style="font-weight:bold;vertical-align:top;">remote_addr</td><td style="vertical-align:top;">:</td><td><div></div></td></tr><tr><td style="font-weight:bold;vertical-align:top;">request_method</td><td style="vertical-align:top;">:</td><td><div>GET</div></td></tr><tr><td style="font-weight:bold;vertical-align:top;">request_uri</td><td style="vertical-align:top;">:</td><td><div>/ji103/default/tables</div></td></tr><tr><td style="font-weight:bold;vertical-align:top;">script_name</td><td style="vertical-align:top;">:</td><td><div></div></td></tr><tr><td style="font-weight:bold;vertical-align:top;">server_name</td><td style="vertical-align:top;">:</td><td><div>sun.minfindnr.ru</div></td></tr><tr><td style="font-weight:bold;vertical-align:top;">server_port</td><td style="vertical-align:top;">:</td><td><div>443</div></td></tr><tr><td style="font-weight:bold;vertical-align:top;">server_protocol</td><td style="vertical-align:top;">:</td><td><div>HTTP/1.0</div></td></tr><tr><td style="font-weight:bold;vertical-align:top;">server_software</td><td style="vertical-align:top;">:</td><td><div>gunicorn/19.1.0</div></td></tr><tr><td style="font-weight:bold;vertical-align:top;">web2py_path</td><td style="vertical-align:top;">:</td><td><div>/home/w2p/web2py</div></td></tr><tr><td style="font-weight:bold;vertical-align:top;">web2py_version</td><td style="vertical-align:top;">:</td><td><div>2.15.4-stable+timestamp.2017.09.02.04.02.22</div></td></tr><tr><td style="font-weight:bold;vertical-align:top;">wsgi.errors</td><td style="vertical-align:top;">:</td><td><div>&lt;gunicorn.http.wsgi.WSGIErrorsWraper object at 0x7f4d6e4c27d0&gt;</div></td></tr><tr><td style="font-weight:bold;vertical-align:top;">wsgi.file_wrapper</td><td style="vertical-align:top;">:</td><td><div>&lt;class &#x27;gunicorn.http.wsgi.FileWrapper&#x27;&gt;</div></td></tr><tr><td style="font-weight:bold;vertical-align:top;">wsgi.input</td><td style="vertical-align:top;">:</td><td><div>&lt;gunicorn.http.body.Body object at 0x7f4d6e4c2d50&gt;</div></td></tr><tr><td style="font-weight:bold;vertical-align:top;">wsgi.multiprocess</td><td style="vertical-align:top;">:</td><td><div>True</div></td></tr><tr><td style="font-weight:bold;vertical-align:top;">wsgi.multithread</td><td style="vertical-align:top;">:</td><td><div>False</div></td></tr><tr><td style="font-weight:bold;vertical-align:top;">wsgi.run_once</td><td style="vertical-align:top;">:</td><td><div>False</div></td></tr><tr><td style="font-weight:bold;vertical-align:top;">wsgi.url_scheme</td><td style="vertical-align:top;">:</td><td><div>https</div></td></tr><tr><td style="font-weight:bold;vertical-align:top;">wsgi.version</td><td style="vertical-align:top;">:</td><td><div><table><tr><td><div>1</div></td></tr><tr><td><div>0</div></td></tr></table></div></td></tr><tr><td style="font-weight:bold;vertical-align:top;">wsgi_errors</td><td style="vertical-align:top;">:</td><td><div>&lt;gunicorn.http.wsgi.WSGIErrorsWraper object at 0x7f4d6e4c27d0&gt;</div></td></tr><tr><td style="font-weight:bold;vertical-align:top;">wsgi_file_wrapper</td><td style="vertical-align:top;">:</td><td><div>&lt;class &#x27;gunicorn.http.wsgi.FileWrapper&#x27;&gt;</div></td></tr><tr><td style="font-weight:bold;vertical-align:top;">wsgi_input</td><td style="vertical-align:top;">:</td><td><div>&lt;gunicorn.http.body.Body object at 0x7f4d6e4c2d50&gt;</div></td></tr><tr><td style="font-weight:bold;vertical-align:top;">wsgi_multiprocess</td><td style="vertical-align:top;">:</td><td><div>True</div></td></tr><tr><td style="font-weight:bold;vertical-align:top;">wsgi_multithread</td><td style="vertical-align:top;">:</td><td><div>False</div></td></tr><tr><td style="font-weight:bold;vertical-align:top;">wsgi_run_once</td><td style="vertical-align:top;">:</td><td><div>False</div></td></tr><tr><td style="font-weight:bold;vertical-align:top;">wsgi_url_scheme</td><td style="vertical-align:top;">:</td><td><div>https</div></td></tr><tr><td style="font-weight:bold;vertical-align:top;">wsgi_version</td><td style="vertical-align:top;">:</td><td><div><table><tr><td><div>1</div></td></tr><tr><td><div>0</div></td></tr></table></div></td></tr></table></div></td></tr><tr><td style="font-weight:bold;vertical-align:top;">extension</td><td style="vertical-align:top;">:</td><td><div>html</div></td></tr><tr><td style="font-weight:bold;vertical-align:top;">folder</td><td style="vertical-align:top;">:</td><td><div>/home/w2p/web2py/applications/ji103/</div></td></tr><tr><td style="font-weight:bold;vertical-align:top;">function</td><td style="vertical-align:top;">:</td><td><div>tables</div></td></tr><tr><td style="font-weight:bold;vertical-align:top;">global_settings</td><td style="vertical-align:top;">:</td><td><div><table><tr><td style="font-weight:bold;vertical-align:top;">app_folders</td><td style="vertical-align:top;">:</td><td><div>set([&#x27;/home/w2p/web2py/applications/ji122/&#x27;, &#x27;/home/w2p/web2py/applications/ji103/&#x27;, &#x27;/home/w2p/web2py/applications/ji142/&#x27;, &#x27;/home/w2p/web2py/applications/ji101/&#x27;, &#x27;/home/w2p/web2py/applications/ji150/&#x27;, &#x27;/home/w2p/web2py/applications/ji146/&#x27;, &#x27;/home/w2p/web2py/applications/ji164/&#x27;, &#x27;/home/w2p/web2py/applications/ji105/&#x27;, &#x27;/home/w2p/web2py/applications/ji151/&#x27;, &#x27;/home/w2p/web2py/applications/welcome/&#x27;, &#x27;/home/w2p/web2py/applications/admin/&#x27;, &#x27;/home/w2p/web2py/applications/newlic/&#x27;, &#x27;/home/w2p/web2py/applications/ji195/&#x27;, &#x27;/home/w2p/web2py/applications/ji162/&#x27;, &#x27;/home/w2p/web2py/applications/ji191/&#x27;, &#x27;/home/w2p/web2py/applications/ji166/&#x27;, &#x27;/home/w2p/web2py/applications/ji120/&#x27;, &#x27;/home/w2p/web2py/applications/lic/&#x27;, &#x27;/home/w2p/web2py/applications/ji143/&#x27;, &#x27;/home/w2p/web2py/applications/ji138/&#x27;, &#x27;/home/w2p/web2py/applications/av031/&#x27;, &#x27;/home/w2p/web2py/applications/ji130/&#x27;, &#x27;/home/w2p/web2py/applications/ji127/&#x27;, &#x27;/home/w2p/web2py/applications/ji100/&#x27;, &#x27;/home/w2p/web2py/applications/ji132/&#x27;, &#x27;/home/w2p/web2py/applications/ji163/&#x27;, &#x27;/home/w2p/web2py/applications/ji190/&#x27;, &#x27;/home/w2p/web2py/applications/up1/&#x27;, &#x27;/home/w2p/web2py/applications/ji192/&#x27;, &#x27;/home/w2p/web2py/applications/ji161/&#x27;, &#x27;/home/w2p/web2py/applications/ji109/&#x27;])</div></td></tr><tr><td style="font-weight:bold;vertical-align:top;">applications_parent</td><td style="vertical-align:top;">:</td><td><div>/home/w2p/web2py</div></td></tr><tr><td style="font-weight:bold;vertical-align:top;">db_sessions</td><td style="vertical-align:top;">:</td><td><div>set([])</div></td></tr><tr><td style="font-weight:bold;vertical-align:top;">debugging</td><td style="vertical-align:top;">:</td><td><div>False</div></td></tr><tr><td style="font-weight:bold;vertical-align:top;">gluon_parent</td><td style="vertical-align:top;">:</td><td><div>/home/w2p/web2py</div></td></tr><tr><td style="font-weight:bold;vertical-align:top;">is_jython</td><td style="vertical-align:top;">:</td><td><div>False</div></td></tr><tr><td style="font-weight:bold;vertical-align:top;">is_py2</td><td style="vertical-align:top;">:</td><td><div>True</div></td></tr><tr><td style="font-weight:bold;vertical-align:top;">is_pypy</td><td style="vertical-align:top;">:</td><td><div>False</div></td></tr><tr><td style="font-weight:bold;vertical-align:top;">is_source</td><td style="vertical-align:top;">:</td><td><div>True</div></td></tr><tr><td style="font-weight:bold;vertical-align:top;">local_hosts</td><td style="vertical-align:top;">:</td><td><div><table><tr><td><div>sun.minfindnr.ru</div></td></tr><tr><td><div>::1</div></td></tr><tr><td><div>92.242.125.188</div></td></tr><tr><td><div>::ffff:127.0.0.1</div></td></tr><tr><td><div>127.0.0.1</div></td></tr></table></div></td></tr><tr><td style="font-weight:bold;vertical-align:top;">web2py_version</td><td style="vertical-align:top;">:</td><td><div>2.15.4-stable+timestamp.2017.09.02.04.02.22</div></td></tr></table></div></td></tr><tr><td style="font-weight:bold;vertical-align:top;">is_https</td><td style="vertical-align:top;">:</td><td><div>True</div></td></tr><tr><td style="font-weight:bold;vertical-align:top;">is_local</td><td style="vertical-align:top;">:</td><td><div>False</div></td></tr><tr><td style="font-weight:bold;vertical-align:top;">is_restful</td><td style="vertical-align:top;">:</td><td><div>False</div></td></tr><tr><td style="font-weight:bold;vertical-align:top;">is_scheduler</td><td style="vertical-align:top;">:</td><td><div>False</div></td></tr><tr><td style="font-weight:bold;vertical-align:top;">is_shell</td><td style="vertical-align:top;">:</td><td><div>False</div></td></tr><tr><td style="font-weight:bold;vertical-align:top;">now</td><td style="vertical-align:top;">:</td><td><div>datetime.datetime(2019, 5, 3, 19, 55, 58, 857868)</div></td></tr><tr><td style="font-weight:bold;vertical-align:top;">raw_args</td><td style="vertical-align:top;">:</td><td><div></div></td></tr><tr><td style="font-weight:bold;vertical-align:top;">raw_extension</td><td style="vertical-align:top;">:</td><td><div>None</div></td></tr><tr><td style="font-weight:bold;vertical-align:top;">url</td><td style="vertical-align:top;">:</td><td><div>/ji103/default/tables</div></td></tr><tr><td style="font-weight:bold;vertical-align:top;">utcnow</td><td style="vertical-align:top;">:</td><td><div>datetime.datetime(2019, 5, 3, 16, 55, 58, 857891)</div></td></tr><tr><td style="font-weight:bold;vertical-align:top;">wsgi</td><td style="vertical-align:top;">:</td><td><div>&lt;gluon.main.LazyWSGI object at 0x7f4d6e4c23d0&gt;</div></td></tr></table></div>'
tRp59
sS'frames'
p60
(lp61
(dp62
S'file'
p63
S'/home/w2p/web2py/gluon/restricted.py'
p64
sS'dump'
p65
(dp66
S'environment'
p67
S"{'A': <class 'gluon.html.A'>, 'ANY_OF': <class 'gluon.validators.ANY_OF'>, 'ASSIGNJS': <function ASSIGNJS>, 'AppConfig': <function AppConfig>, 'Auth': <class 'gluon.tools.Auth'>, 'B': <class 'gluon.html.B'>, 'BEAUTIFY': <class 'gluon.html.BEAUTIFY'>, 'BODY': <class 'gluon.html.BODY'>, 'BR': <class 'gluon.html.BR'>, 'BUTTON': <class 'gluon.html.BUTTON'>, ...}"
p68
sS'ccode'
p69
S'<code object <module> at 0x7f4d6f1d7bb0, file "/...cations/ji103/views/default/tables.html", line 1>'
p70
ssS'lnum'
p71
I219
sS'lines'
p72
(dp73
I214
S'    if environment is None:'
p74
sI215
S'        environment = {}'
p75
sI216
S"    environment['__file__'] = layer"
p76
sI217
S"    environment['__name__'] = '__restricted__'"
p77
sI218
S'    try:'
p78
sI219
S'        exec(ccode, environment)'
p79
sI220
S'    except HTTP:'
p80
sI221
S'        raise'
p81
sI222
S'    except RestrictedError:'
p82
sI223
S'        # do not encapsulate (obfuscate) the original RestrictedError'
p83
ssS'call'
p84
S'(ccode=<code object <module> at 0x7f4d6f1d7bb0, file "/...cations/ji103/views/default/tables.html", line 1>, environment={\'A\': <class \'gluon.html.A\'>, \'ANY_OF\': <class \'gluon.validators.ANY_OF\'>, \'ASSIGNJS\': <function ASSIGNJS>, \'AppConfig\': <function AppConfig>, \'Auth\': <class \'gluon.tools.Auth\'>, \'B\': <class \'gluon.html.B\'>, \'BEAUTIFY\': <class \'gluon.html.BEAUTIFY\'>, \'BODY\': <class \'gluon.html.BODY\'>, \'BR\': <class \'gluon.html.BR\'>, \'BUTTON\': <class \'gluon.html.BUTTON\'>, ...}, layer=\'/home/w2p/web2py/applications/ji103/views/default/tables.html\', scode=\'response.write(\\\'<!DOCTYPE html>\\\\n<html lang="en"...</script>\\\\n\\\\n  </body>\\\\n\\\\n</html>\\\', escape=False)\')'
p85
sS'func'
p86
S'restricted'
p87
sa(dp88
g63
S'/home/w2p/web2py/applications/ji103/views/default/tables.html'
p89
sg65
(dp90
S'i'
S'undefined'
p91
ssg71
I119
sg72
(dp92
I128
S"        response.write(' </td>\\n</tr>\\n', escape=False)"
p93
sI129
S'        pass'
p94
sI110
S"response.write('\\n', escape=False)"
p95
sI111
S'results= db(query).select()'
p96
sI112
S"response.write('\\n', escape=False)"
p97
sI113
S'if not None is results:'
p98
sI114
S"    response.write('\\n', escape=False)"
p99
sI115
S'    for row in results:'
p100
sI116
S"        response.write('\\n<tr>\\n    <td> ', escape=False)"
p101
sI117
S'        response.write(row.f0)'
p102
sI118
S"        response.write(' </td>\\n    <td> ', escape=False)"
p103
sI119
S'        response.write(row.f1)'
p104
sI120
S"        response.write(' </td>\\n    <td> ', escape=False)"
p105
sI121
S'        response.write(row.f2)'
p106
sI122
S"        response.write(' </td>\\n    <td> ', escape=False)"
p107
sI123
S'        response.write(row.f3)'
p108
sI124
S"        response.write(' </td>\\n    <td> ', escape=False)"
p109
sI125
S'        response.write(row.f4)'
p110
sI126
S"        response.write(' </td>\\n    <td> ', escape=False)"
p111
sI127
S'        response.write(row.f5)'
p112
ssg84
S'()'
p113
sg86
S'<module>'
p114
sa(dp115
g63
S'/home/w2p/.conda/envs/lic/lib/python2.7/site-packages/pydal/objects.py'
p116
sg65
(dp117
S'builtinAttributeError'
p118
S"<type 'exceptions.AttributeError'>"
p119
ssg71
I111
sg72
(dp120
I106
S''
sI107
S'    def __getattr__(self, k):'
p121
sI108
S'        try:'
p122
sI109
S'            return self.__getitem__(k)'
p123
sI110
S'        except KeyError:'
p124
sI111
S'            raise AttributeError'
p125
sI112
S''
sI113
S'    def __copy__(self):'
p126
sI114
S'        return Row(self)'
p127
sI115
S''
ssg84
S"(self=<Row {'f0': 0L, 'f2': 'w2p f2', 'f3': 'w2p f3', ...time.date(2019, 5, 3), 'f5': 'w2p f5', 'id': 1L}>, k='f1')"
p128
sg86
S'__getattr__'
p129
sasS'pyver'
p130
S'Python 2.7.13: /home/w2p/.conda/envs/lic/bin/python (prefix: /home/w2p/.conda/envs/lic)'
p131
sS'session'
p132
g58
(S's\x1a\x00\x00\x00<div><table></table></div>'
tRp133
sS'etype'
p134
S"<type 'exceptions.AttributeError'>"
p135
sS'date'
p136
S'Fri May  3 19:55:59 2019'
p137
sS'response'
p138
g58
(S's\xbc$\x00\x00<div><table><tr><td style="font-weight:bold;vertical-align:top;">body</td><td style="vertical-align:top;">:</td><td><div>&lt;cStringIO.StringO object at 0x7f4d6e0d7df8&gt;</div></td></tr><tr><td style="font-weight:bold;vertical-align:top;">cookies</td><td style="vertical-align:top;">:</td><td><div><table><tr><td style="font-weight:bold;vertical-align:top;">session_id_ji103</td><td style="vertical-align:top;">:</td><td><div>46.150.97.71-6a4b6863-4650-40df-b84e-0c354d9bb215<table><tr><td style="font-weight:bold;vertical-align:top;">comment</td><td style="vertical-align:top;">:</td><td><div></div></td></tr><tr><td style="font-weight:bold;vertical-align:top;">domain</td><td style="vertical-align:top;">:</td><td><div></div></td></tr><tr><td style="font-weight:bold;vertical-align:top;">expires</td><td style="vertical-align:top;">:</td><td><div></div></td></tr><tr><td style="font-weight:bold;vertical-align:top;">httponly</td><td style="vertical-align:top;">:</td><td><div></div></td></tr><tr><td style="font-weight:bold;vertical-align:top;">max-age</td><td style="vertical-align:top;">:</td><td><div></div></td></tr><tr><td style="font-weight:bold;vertical-align:top;">path</td><td style="vertical-align:top;">:</td><td><div>/</div></td></tr><tr><td style="font-weight:bold;vertical-align:top;">secure</td><td style="vertical-align:top;">:</td><td><div></div></td></tr><tr><td style="font-weight:bold;vertical-align:top;">version</td><td style="vertical-align:top;">:</td><td><div></div></td></tr></table></div></td></tr></table></div></td></tr><tr><td style="font-weight:bold;vertical-align:top;">delimiters</td><td style="vertical-align:top;">:</td><td><div><table><tr><td><div>{{</div></td></tr><tr><td><div>}}</div></td></tr></table></div></td></tr><tr><td style="font-weight:bold;vertical-align:top;">files</td><td style="vertical-align:top;">:</td><td><div><table><tr><td><div>/ji103/static/js/jquery.js</div></td></tr><tr><td><div>/ji103/static/css/calendar.css</div></td></tr><tr><td><div>/ji103/static/js/calendar.js</div></td></tr><tr><td><div>/ji103/static/js/web2py.js</div></td></tr></table></div></td></tr><tr><td style="font-weight:bold;vertical-align:top;">flash</td><td style="vertical-align:top;">:</td><td><div></div></td></tr><tr><td style="font-weight:bold;vertical-align:top;">flash0</td><td style="vertical-align:top;">:</td><td><div>form-name tablesform0</div></td></tr><tr><td style="font-weight:bold;vertical-align:top;">form_label_separator</td><td style="vertical-align:top;">:</td><td><div></div></td></tr><tr><td style="font-weight:bold;vertical-align:top;">formstyle</td><td style="vertical-align:top;">:</td><td><div>bootstrap3_inline</div></td></tr><tr><td style="font-weight:bold;vertical-align:top;">generic_patterns</td><td style="vertical-align:top;">:</td><td><div><table></table></div></td></tr><tr><td style="font-weight:bold;vertical-align:top;">headers</td><td style="vertical-align:top;">:</td><td><div><table><tr><td style="font-weight:bold;vertical-align:top;">X-Powered-By</td><td style="vertical-align:top;">:</td><td><div>xping</div></td></tr></table></div></td></tr><tr><td style="font-weight:bold;vertical-align:top;">menu</td><td style="vertical-align:top;">:</td><td><div><table><tr><td><div><table><tr><td><div>Myadd</div></td></tr><tr><td><div>False</div></td></tr><tr><td><div>/ji103/myadd/index</div></td></tr><tr><td><div><table></table></div></td></tr></table></div></td></tr><tr><td><div><table><tr><td><div>Home</div></td></tr><tr><td><div>False</div></td></tr><tr><td><div>/ji103/default/index</div></td></tr><tr><td><div><table></table></div></td></tr></table></div></td></tr><tr><td><div><table><tr><td><div>My Sites</div></td></tr><tr><td><div>False</div></td></tr><tr><td><div>/admin/default/site</div></td></tr></table></div></td></tr><tr><td><div><table><tr><td><div>This App</div></td></tr><tr><td><div>False</div></td></tr><tr><td><div>#</div></td></tr><tr><td><div><table><tr><td><div><table><tr><td><div>Design</div></td></tr><tr><td><div>False</div></td></tr><tr><td><div>/admin/default/design/ji103</div></td></tr></table></div></td></tr><tr><td><div><table><tr><td><div>Myadd ctrl</div></td></tr><tr><td><div>False</div></td></tr><tr><td><div>/admin/default/edit/ji103/controllers/myadd.py</div></td></tr></table></div></td></tr><tr><td><div><table><tr><td><div>Myima ctrl</div></td></tr><tr><td><div>False</div></td></tr><tr><td><div>/admin/default/edit/ji103/controllers/myima.py</div></td></tr></table></div></td></tr><tr><td><div><table><tr><td><div>default ctrl</div></td></tr><tr><td><div>False</div></td></tr><tr><td><div>/admin/default/edit/ji103/controllers/default.py</div></td></tr></table></div></td></tr><tr><td><div><table><tr><td><div>DB Model</div></td></tr><tr><td><div>False</div></td></tr><tr><td><div>/admin/default/edit/ji103/models/db.py</div></td></tr></table></div></td></tr><tr><td><div><table><tr><td><div>Database</div></td></tr><tr><td><div>False</div></td></tr><tr><td><div>/ji103/appadmin/index</div></td></tr></table></div></td></tr><tr><td><div><table><tr><td><div>Errors</div></td></tr><tr><td><div>False</div></td></tr><tr><td><div>/admin/default/errors/ji103</div></td></tr></table></div></td></tr><tr><td><div><table><tr><td><div>About</div></td></tr><tr><td><div>False</div></td></tr><tr><td><div>/admin/default/about/ji103</div></td></tr></table></div></td></tr></table></div></td></tr></table></div></td></tr><tr><td><div><table><tr><td><div>auth</div></td></tr><tr><td><div>False</div></td></tr><tr><td><div>/ji103/default/index</div></td></tr><tr><td><div><table><tr><td><div><table><tr><td><div>events</div></td></tr><tr><td><div>False</div></td></tr><tr><td><div>/ji103/myadd/auth_eventctrl</div></td></tr></table></div></td></tr><tr><td><div><table><tr><td><div>users</div></td></tr><tr><td><div>False</div></td></tr><tr><td><div>/ji103/myadd/auth_userctrl</div></td></tr></table></div></td></tr><tr><td><div><table><tr><td><div>groups</div></td></tr><tr><td><div>False</div></td></tr><tr><td><div>/ji103/myadd/auth_groupctrl</div></td></tr></table></div></td></tr><tr><td><div><table><tr><td><div>member</div></td></tr><tr><td><div>False</div></td></tr><tr><td><div>/ji103/myadd/auth_membershipctrl</div></td></tr></table></div></td></tr></table></div></td></tr></table></div></td></tr></table></div></td></tr><tr><td style="font-weight:bold;vertical-align:top;">meta</td><td style="vertical-align:top;">:</td><td><div><table></table></div></td></tr><tr><td style="font-weight:bold;vertical-align:top;">models_to_run</td><td style="vertical-align:top;">:</td><td><div><table><tr><td><div>^\\w+\\.py$</div></td></tr><tr><td><div>^default/\\w+\\.py$</div></td></tr><tr><td><div>^default/tables/\\w+\\.py$</div></td></tr></table></div></td></tr><tr><td style="font-weight:bold;vertical-align:top;">postprocessing</td><td style="vertical-align:top;">:</td><td><div><table></table></div></td></tr><tr><td style="font-weight:bold;vertical-align:top;">session_client</td><td style="vertical-align:top;">:</td><td><div>46.150.97.71</div></td></tr><tr><td style="font-weight:bold;vertical-align:top;">session_cookie_compression_level</td><td style="vertical-align:top;">:</td><td><div>None</div></td></tr><tr><td style="font-weight:bold;vertical-align:top;">session_cookie_expires</td><td style="vertical-align:top;">:</td><td><div>None</div></td></tr><tr><td style="font-weight:bold;vertical-align:top;">session_data_name</td><td style="vertical-align:top;">:</td><td><div>session_data_ji103</div></td></tr><tr><td style="font-weight:bold;vertical-align:top;">session_file</td><td style="vertical-align:top;">:</td><td><div>&lt;open file &#x27;/home/w2p/web2py/applications/ji103/sessions/161/022/46.150.97.71-6a4b6863-4650-40df-b84e-0c354d9bb215&#x27;, mode &#x27;rb+&#x27; at 0x7f4d6e0fdc00&gt;</div></td></tr><tr><td style="font-weight:bold;vertical-align:top;">session_filename</td><td style="vertical-align:top;">:</td><td><div>/home/w2p/web2py/applications/ji103/sessions/46.150.97.71-6a4b6863-4650-40df-b84e-0c354d9bb215</div></td></tr><tr><td style="font-weight:bold;vertical-align:top;">session_hash</td><td style="vertical-align:top;">:</td><td><div>57f13b038a0133e4a690a4ae5e0dc33f</div></td></tr><tr><td style="font-weight:bold;vertical-align:top;">session_id</td><td style="vertical-align:top;">:</td><td><div>46.150.97.71-6a4b6863-4650-40df-b84e-0c354d9bb215</div></td></tr><tr><td style="font-weight:bold;vertical-align:top;">session_id_name</td><td style="vertical-align:top;">:</td><td><div>session_id_ji103</div></td></tr><tr><td style="font-weight:bold;vertical-align:top;">session_locked</td><td style="vertical-align:top;">:</td><td><div>True</div></td></tr><tr><td style="font-weight:bold;vertical-align:top;">session_masterapp</td><td style="vertical-align:top;">:</td><td><div>ji103</div></td></tr><tr><td style="font-weight:bold;vertical-align:top;">session_new</td><td style="vertical-align:top;">:</td><td><div>False</div></td></tr><tr><td style="font-weight:bold;vertical-align:top;">session_storage_type</td><td style="vertical-align:top;">:</td><td><div>file</div></td></tr><tr><td style="font-weight:bold;vertical-align:top;">status</td><td style="vertical-align:top;">:</td><td><div>200</div></td></tr><tr><td style="font-weight:bold;vertical-align:top;">view</td><td style="vertical-align:top;">:</td><td><div>default/tables.html</div></td></tr></table></div>'
tRp139
sS'locals'
p140
(dp141
S'k'
S"'f1'"
p142
sS'self'
p143
S"<Row {'f0': 0L, 'f2': 'w2p f2', 'f3': 'w2p f3', ...time.date(2019, 5, 3), 'f5': 'w2p f5', 'id': 1L}>"
p144
sssS'traceback'
p145
S'Traceback (most recent call last):\n  File "/home/w2p/web2py/gluon/restricted.py", line 219, in restricted\n    exec(ccode, environment)\n  File "/home/w2p/web2py/applications/ji103/views/default/tables.html", line 119, in <module>\n    <i class="fas fa-fw fa-folder"></i>\n  File "/home/w2p/.conda/envs/lic/lib/python2.7/site-packages/pydal/objects.py", line 111, in __getattr__\n    raise AttributeError\nAttributeError\n'
p146
s.