(dp1
S'output'
p2
S"<type 'exceptions.AttributeError'> "
p3
sS'layer'
p4
S'/home/w2p/web2py/applications/ji103/views/default/index.html'
p5
sS'code'
p6
S'response.write(\'<!DOCTYPE html>\\n<html>\\n\\n  <head>\\n\\n    <meta charset="utf-8">\\n    <meta http-equiv="X-UA-Compatible" content="IE=edge">\\n    <meta name="viewport" content="width=device-width, initial-scale=1, shrink-to-fit=no">\\n    <meta name="description" content="my-content">\\n    <meta name="author" content="my-author">\\n\\n    <title>facew2p</title>\\n\\n    <!-- Bootstrap core CSS-->\\n    <link href="\', escape=False)\nresponse.write(URL(\'static\',\'template/vendor/bootstrap/css/bootstrap.min.css\'))\nresponse.write(\'" rel="stylesheet">\\n\\n    <!-- Custom fonts for this template-->\\n    <link href="\', escape=False)\nresponse.write(URL(\'static\',\'template/vendor/fontawesome-free/css/all.min.css\'))\nresponse.write(\'" rel="stylesheet" type="text/css">\\n\\n    <!-- Page level plugin CSS-->\\n    <link href="\', escape=False)\nresponse.write(URL(\'static\',\'template/vendor/datatables/dataTables.bootstrap4.css\'))\nresponse.write(\'" rel="stylesheet">\\n\\n    <!-- Custom styles for this template-->\\n    <link href="\', escape=False)\nresponse.write(URL(\'static\',\'template/css/sb-admin.css\'))\nresponse.write(\'" rel="stylesheet">\\n\\n  \\n\\n   <meta charset=\\\'utf-8\\\'>\\n   <link  rel="icon" type="image/x-icon" href="\', escape=False)\nresponse.write(URL(\'static\',\'images/favicon.ico\'))\nresponse.write(\'"  >\\n</head>\\n\\n  <body id="page-top">\\n\\n    <nav class="navbar navbar-expand navbar-dark bg-dark static-top">\\n\\n      <a class="navbar-brand mr-1" href="\', escape=False)\nresponse.write(URL(c=\'default\',f=\'index\'))\nresponse.write(\'">\', escape=False)\nresponse.write(DICT["aa289"])\nresponse.write(\'</a>\\n\\n      <button class="btn btn-link btn-sm text-white order-1 order-sm-0" id="sidebarToggle" href="#">\\n        <i class="fas fa-bars"></i>\\n      </button>\\n\\n      <!-- Navbar Search -->\\n      \\n\', escape=False)\nresponse.write(\'\\n\', escape=False)\nresponse.write(\'<script type="text/javascript"><!--\\n    // These variables are used by the web2py_ajax_init function in web2py_ajax.js (which is loaded below).\\n    \', escape=False)\nresponse.write(ASSIGNJS(\nw2p_ajax_confirm_message = T(\'Are you sure you want to delete this object?\'),\nw2p_ajax_disable_with_message = T(\'Working...\'),\nw2p_ajax_date_format = T(\'%Y-%m-%d\'),\nw2p_ajax_datetime_format = T(\'%Y-%m-%d %H:%M:%S\'),\najax_error_500 = T.M(\'An error occured, please [[reload %s]] the page\') % URL(args=request.args, vars=request.get_vars)\n))\nresponse.write(\'\\n    //--></script>\\n\', escape=False)\nresponse.files.insert(0,URL(\'static\',\'js/jquery.js\'))\nresponse.files.insert(1,URL(\'static\',\'css/calendar.css\'))\nresponse.files.insert(2,URL(\'static\',\'js/calendar.js\'))\nresponse.files.insert(3,URL(\'static\',\'js/web2py.js\'))\nresponse.include_meta()\nresponse.include_files()\nresponse.write(\'\\n\', escape=False)\nresponse.write(\'\\n\\n\', escape=False)\nresponse.write(indexform0.custom.begin)\nresponse.write(\'\\n\', escape=False)\nresponse.write(indexform0.custom.widget.f0)\nresponse.write(\'\\n\', escape=False)\nresponse.write(indexform0.custom.submit)\nresponse.write(\'\\n\', escape=False)\nresponse.write(indexform0.custom.end)\nresponse.write(\'\\n\\n<div  id=divID0 style="heigth:50%;margin 0;display:inline-flex;padding: 0 5px 2px 5px;background-color:#F0FFF0;color:black;border: 1px dashed red;" >\\n                   <small>\', escape=False)\nresponse.write(response.flash0 or \'\')\nresponse.write("</small>\\n</div>\\n\\n <script>\\n setTimeout(function(){\\n  if ($(\'#divID0\').length > 0) {\\n    $(\'#divID0\').remove();\\n  } \\n}, 15000)\\n </script>\\n", escape=False)\nresponse.write(\'\\n\\n\\n      <!-- Navbar -->\\n      <ul class="navbar-nav ml-auto ml-md-0">\\n        <li class="nav-item dropdown no-arrow mx-1">\\n          <a class="nav-link dropdown-toggle" href="#" id="alertsDropdown" role="button" data-toggle="dropdown" aria-haspopup="true" aria-expanded="false">\\n            <i class="fas fa-bell fa-fw"></i>\\n            <span class="badge badge-danger">\', escape=False)\nresponse.write(DICT["sx291"])\nresponse.write(\'</span>\\n          </a>\\n          <div class="dropdown-menu dropdown-menu-right" aria-labelledby="alertsDropdown">\\n            <a class="dropdown-item" href="#">\', escape=False)\nresponse.write(DICT["aa292"])\nresponse.write(\'</a>\\n            <a class="dropdown-item" href="#">\', escape=False)\nresponse.write(DICT["aa293"])\nresponse.write(\'</a>\\n            <div class="dropdown-divider"></div>\\n            <a class="dropdown-item" href="#">\', escape=False)\nresponse.write(DICT["aa294"])\nresponse.write(\'</a>\\n          </div>\\n        </li>\\n        <li class="nav-item dropdown no-arrow mx-1">\\n          <a class="nav-link dropdown-toggle" href="#" id="messagesDropdown" role="button" data-toggle="dropdown" aria-haspopup="true" aria-expanded="false">\\n            <i class="fas fa-envelope fa-fw"></i>\\n            <span class="badge badge-danger">\', escape=False)\nresponse.write(DICT["sx295"])\nresponse.write(\'</span>\\n          </a>\\n          <div class="dropdown-menu dropdown-menu-right" aria-labelledby="messagesDropdown">\\n            <a class="dropdown-item" href="#">\', escape=False)\nresponse.write(DICT["aa296"])\nresponse.write(\'</a>\\n            <a class="dropdown-item" href="#">\', escape=False)\nresponse.write(DICT["aa297"])\nresponse.write(\'</a>\\n            <div class="dropdown-divider"></div>\\n            <a class="dropdown-item" href="#">\', escape=False)\nresponse.write(DICT["aa298"])\nresponse.write(\'</a>\\n          </div>\\n        </li>\\n        <li class="nav-item dropdown no-arrow">\\n          <a class="nav-link dropdown-toggle" href="#" id="userDropdown" role="button" data-toggle="dropdown" aria-haspopup="true" aria-expanded="false">\\n            <i class="fas fa-user-circle fa-fw"></i>\\n          </a>\\n          <div class="dropdown-menu dropdown-menu-right" aria-labelledby="userDropdown">\\n            <a class="dropdown-item" href="#">\', escape=False)\nresponse.write(DICT["aa299"])\nresponse.write(\'</a>\\n            <a class="dropdown-item" href="#">\', escape=False)\nresponse.write(DICT["aa300"])\nresponse.write(\'</a>\\n            <div class="dropdown-divider"></div>\\n            <a class="dropdown-item" href="#" data-toggle="modal" data-target="#logoutModal">\', escape=False)\nresponse.write(DICT["aa301"])\nresponse.write(\'</a>\\n          </div>\\n        </li>\\n      </ul>\\n\\n    </nav>\\n\\n    <div id="wrapper">\\n\\n      <!-- Sidebar -->\\n      <ul class="sidebar navbar-nav">\\n        <li class="nav-item active">\\n          <a class="nav-link" href="\', escape=False)\nresponse.write(URL(c=\'default\',f=\'index\'))\nresponse.write(\'">\\n            <i class="fas fa-fw fa-tachometer-alt"></i>\\n            <span>\', escape=False)\nresponse.write(DICT["sp303"])\nresponse.write(\'</span>\\n          </a>\\n        </li>\\n        <li class="nav-item dropdown">\\n          <a class="nav-link dropdown-toggle" href="#" id="pagesDropdown" role="button" data-toggle="dropdown" aria-haspopup="true" aria-expanded="false">\\n            <i class="fas fa-fw fa-folder"></i>\\n            <span>\', escape=False)\nresponse.write(DICT["sp304"])\nresponse.write(\'</span>\\n          </a>\\n          <div class="dropdown-menu" aria-labelledby="pagesDropdown">\\n            <h6 class="dropdown-header">\', escape=False)\nresponse.write(DICT["hf305"])\nresponse.write(\'</h6>\\n            <a class="dropdown-item" href="\', escape=False)\nresponse.write(URL(c=\'default\',f=\'login\'))\nresponse.write(\'">\', escape=False)\nresponse.write(DICT["aa307"])\nresponse.write(\'</a>\\n            <a class="dropdown-item" href="\', escape=False)\nresponse.write(URL(c=\'default\',f=\'register\'))\nresponse.write(\'">\', escape=False)\nresponse.write(DICT["aa309"])\nresponse.write(\'</a>\\n            <a class="dropdown-item" href="\', escape=False)\nresponse.write(URL(c=\'default\',f=\'forgot_password\'))\nresponse.write(\'">\', escape=False)\nresponse.write(DICT["aa311"])\nresponse.write(\'</a>\\n            <div class="dropdown-divider"></div>\\n            <h6 class="dropdown-header">\', escape=False)\nresponse.write(DICT["hf312"])\nresponse.write(\'</h6>\\n            <a class="dropdown-item" href="\', escape=False)\nresponse.write(URL(c=\'default\',f=\'X404\'))\nresponse.write(\'">\', escape=False)\nresponse.write(DICT["aa314"])\nresponse.write(\'</a>\\n            <a class="dropdown-item" href="\', escape=False)\nresponse.write(URL(c=\'default\',f=\'blank\'))\nresponse.write(\'">\', escape=False)\nresponse.write(DICT["aa316"])\nresponse.write(\'</a>\\n          </div>\\n        </li>\\n        <li class="nav-item">\\n          <a class="nav-link" href="\', escape=False)\nresponse.write(URL(c=\'default\',f=\'charts\'))\nresponse.write(\'">\\n            <i class="fas fa-fw fa-chart-area"></i>\\n            <span>\', escape=False)\nresponse.write(DICT["sp318"])\nresponse.write(\'</span></a>\\n        </li>\\n        <li class="nav-item">\\n          <a class="nav-link" href="\', escape=False)\nresponse.write(URL(c=\'default\',f=\'tables\'))\nresponse.write(\'">\\n            <i class="fas fa-fw fa-table"></i>\\n            <span>\', escape=False)\nresponse.write(DICT["sp320"])\nresponse.write(\'</span></a>\\n        </li>\\n      </ul>\\n\\n      <div id="content-wrapper">\\n\\n        <div class="container-fluid">\\n\\n          <!-- Breadcrumbs-->\\n          <ol class="breadcrumb">\\n            <li class="breadcrumb-item">\\n              <a href="#">\', escape=False)\nresponse.write(DICT["aa321"])\nresponse.write(\'</a>\\n            </li>\\n            <li class="breadcrumb-item active">\', escape=False)\nresponse.write(DICT["lb322"])\nresponse.write(\'</li>\\n          </ol>\\n\\n          <!-- Icon Cards-->\\n          <div class="row">\\n            <div class="col-xl-3 col-sm-6 mb-3">\\n              <div class="card text-white bg-primary o-hidden h-100">\\n                <div class="card-body">\\n                  <div class="card-body-icon">\\n                    <i class="fas fa-fw fa-comments"></i>\\n                  </div>\\n                  <div class="mr-5">\', escape=False)\nresponse.write(DICT["di323"])\nresponse.write(\'</div>\\n                </div>\\n                <a class="card-footer text-white clearfix small z-1" href="#">\\n                  <span class="float-left">\', escape=False)\nresponse.write(DICT["sx324"])\nresponse.write(\'</span>\\n                  <span class="float-right">\\n                    <i class="fas fa-angle-right"></i>\\n                  </span>\\n                </a>\\n              </div>\\n            </div>\\n            <div class="col-xl-3 col-sm-6 mb-3">\\n              <div class="card text-white bg-warning o-hidden h-100">\\n                <div class="card-body">\\n                  <div class="card-body-icon">\\n                    <i class="fas fa-fw fa-list"></i>\\n                  </div>\\n                  <div class="mr-5">\', escape=False)\nresponse.write(DICT["di325"])\nresponse.write(\'</div>\\n                </div>\\n                <a class="card-footer text-white clearfix small z-1" href="#">\\n                  <span class="float-left">\', escape=False)\nresponse.write(DICT["sx326"])\nresponse.write(\'</span>\\n                  <span class="float-right">\\n                    <i class="fas fa-angle-right"></i>\\n                  </span>\\n                </a>\\n              </div>\\n            </div>\\n            <div class="col-xl-3 col-sm-6 mb-3">\\n              <div class="card text-white bg-success o-hidden h-100">\\n                <div class="card-body">\\n                  <div class="card-body-icon">\\n                    <i class="fas fa-fw fa-shopping-cart"></i>\\n                  </div>\\n                  <div class="mr-5">\', escape=False)\nresponse.write(DICT["di327"])\nresponse.write(\'</div>\\n                </div>\\n                <a class="card-footer text-white clearfix small z-1" href="#">\\n                  <span class="float-left">\', escape=False)\nresponse.write(DICT["sx328"])\nresponse.write(\'</span>\\n                  <span class="float-right">\\n                    <i class="fas fa-angle-right"></i>\\n                  </span>\\n                </a>\\n              </div>\\n            </div>\\n            <div class="col-xl-3 col-sm-6 mb-3">\\n              <div class="card text-white bg-danger o-hidden h-100">\\n                <div class="card-body">\\n                  <div class="card-body-icon">\\n                    <i class="fas fa-fw fa-life-ring"></i>\\n                  </div>\\n                  <div class="mr-5">\', escape=False)\nresponse.write(DICT["di329"])\nresponse.write(\'</div>\\n                </div>\\n                <a class="card-footer text-white clearfix small z-1" href="#">\\n                  <span class="float-left">\', escape=False)\nresponse.write(DICT["sx330"])\nresponse.write(\'</span>\\n                  <span class="float-right">\\n                    <i class="fas fa-angle-right"></i>\\n                  </span>\\n                </a>\\n              </div>\\n            </div>\\n          </div>\\n\\n          <!-- Area Chart Example-->\\n          <div class="card mb-3">\\n            <div class="card-header">\\n              <i class="fas fa-chart-area"></i>\\n              Area Chart Example</div>\\n            <div class="card-body">\\n              <canvas id="myAreaChart" width="100%" height="30"></canvas>\\n            </div>\\n            <div class="card-footer small text-muted">\', escape=False)\nresponse.write(DICT["di331"])\nresponse.write(\'</div>\\n          </div>\\n\\n          <!-- DataTables Example -->\\n          <div class="card mb-3">\\n            <div class="card-header">\\n              <i class="fas fa-table"></i>\\n              Data Table Example</div>\\n            <div class="card-body">\\n              <div class="table-responsive">\\n                <table class="table table-bordered" id="dataTable" width="100%" cellspacing="0">\\n                  \\n<thead>\\n<tr>\\n    <th>\\xd0\\xa9\\xd0\\xa9\\xd0\\xa9 Name</th>\\n    <th>\\xd0\\xa7\\xd0\\xa7\\xd0\\xa7\\xd0\\xa7 Position</th>\\n    <th>\\xd0\\xaa\\xd0\\xaa\\xd0\\xaa\\xd0\\xaa Office</th>\\n    <th>\\xd0\\xae\\xd0\\xae\\xd0\\xae Age</th>\\n    <th>\\xd0\\x97\\xd0\\x97\\xd0\\x97 Start date</th>\\n    <th>Salary</th>\\n</tr>\\n</thead>\\n\\n<tbody>\\n\', escape=False)\nquery15= db.indextable0.id > 0\nresponse.write(\'\\n\', escape=False)\nresults15= db(query15).select()\nresponse.write(\'\\n\', escape=False)\nif not results15 is None:\n    response.write(\'\\n\', escape=False)\n    for row in results15:\n        response.write(\'\\n<tr>\\n    <td>\', escape=False)\n        response.write(row.f0)\n        response.write(\'</td>\\n    <td>\', escape=False)\n        response.write(row.f1)\n        response.write(\'</td>\\n    <td>\', escape=False)\n        response.write(row.f2)\n        response.write(\'</td>\\n    <td>\', escape=False)\n        response.write(row.f3)\n        response.write(\'</td>\\n    <td>\', escape=False)\n        response.write(row.f4)\n        response.write(\'</td>\\n    <td>\', escape=False)\n        response.write(row.f5)\n        response.write(\'</td>\\n</tr>\\n\', escape=False)\n        pass\n    response.write(\'\\n\', escape=False)\n    pass\nresponse.write(\'\\n</tbody>\\n\\n                </table>\\n<div  id=divID16 style="heigth:50%;margin 0;display:inline-flex;padding: 0 5px 2px 5px;background-color:#F0FFF0;color:black;border: 1px dashed red;" >\\n                   <small>indextable0</small>\\n</div>\\n\\n <script>\\n setTimeout(function(){\\n  if ($(\\\'#divID16\\\').length > 0) {\\n    $(\\\'#divID16\\\').remove();\\n  } \\n}, 15000)\\n </script>\\n              </div>\\n            </div>\\n            <div class="card-footer small text-muted">\', escape=False)\nresponse.write(DICT["di389"])\nresponse.write(\'</div>\\n          </div>\\n\\n        </div>\\n        <!-- /.container-fluid -->\\n\\n        <!-- Sticky Footer -->\\n        <footer class="sticky-footer">\\n          <div class="container my-auto">\\n            <div class="copyright text-center my-auto">\\n              <span>\', escape=False)\nresponse.write(DICT["sp390"])\nresponse.write(\'</span>\\n            </div>\\n          </div>\\n        </footer>\\n\\n      </div>\\n      <!-- /.content-wrapper -->\\n\\n    </div>\\n    <!-- /#wrapper -->\\n\\n    <!-- Scroll to Top Button-->\\n    <a class="scroll-to-top rounded" href="#page-top">\\n      <i class="fas fa-angle-up"></i>\\n    </a>\\n\\n    <!-- Logout Modal-->\\n    <div class="modal fade" id="logoutModal" tabindex="-1" role="dialog" aria-labelledby="exampleModalLabel" aria-hidden="true">\\n      <div class="modal-dialog" role="document">\\n        <div class="modal-content">\\n          <div class="modal-header">\\n            <h5 class="modal-title" id="exampleModalLabel">\', escape=False)\nresponse.write(DICT["he391"])\nresponse.write(\'</h5>\\n            <button class="close" type="button" data-dismiss="modal" aria-label="Close">\\n              <span aria-hidden="true">\', escape=False)\nresponse.write(DICT["sx392"])\nresponse.write(\'</span>\\n            </button>\\n          </div>\\n          <div class="modal-body">\', escape=False)\nresponse.write(DICT["di393"])\nresponse.write(\'</div>\\n          <div class="modal-footer">\\n            <button class="btn btn-secondary" type="button" data-dismiss="modal">\', escape=False)\nresponse.write(DICT["bu394"])\nresponse.write(\'</button>\\n            <a class="btn btn-primary" href="\', escape=False)\nresponse.write(URL(c=\'default\',f=\'login\'))\nresponse.write(\'">\', escape=False)\nresponse.write(DICT["aa396"])\nresponse.write(\'</a>\\n          </div>\\n        </div>\\n      </div>\\n    </div>\\n\\n    <!-- Bootstrap core JavaScript-->\\n    <script src="\', escape=False)\nresponse.write(URL(\'static\',\'template/vendor/jquery/jquery.min.js\'))\nresponse.write(\'"></script>\\n    <script src="\', escape=False)\nresponse.write(URL(\'static\',\'template/vendor/bootstrap/js/bootstrap.bundle.min.js\'))\nresponse.write(\'"></script>\\n\\n    <!-- Core plugin JavaScript-->\\n    <script src="\', escape=False)\nresponse.write(URL(\'static\',\'template/vendor/jquery-easing/jquery.easing.min.js\'))\nresponse.write(\'"></script>\\n\\n    <!-- Page level plugin JavaScript-->\\n    <script src="\', escape=False)\nresponse.write(URL(\'static\',\'template/vendor/chart.js/Chart.min.js\'))\nresponse.write(\'"></script>\\n    <script src="\', escape=False)\nresponse.write(URL(\'static\',\'template/vendor/datatables/jquery.dataTables.js\'))\nresponse.write(\'"></script>\\n    <script src="\', escape=False)\nresponse.write(URL(\'static\',\'template/vendor/datatables/dataTables.bootstrap4.js\'))\nresponse.write(\'"></script>\\n\\n    <!-- Custom scripts for all pages-->\\n    <script src="\', escape=False)\nresponse.write(URL(\'static\',\'template/js/sb-admin.min.js\'))\nresponse.write(\'"></script>\\n\\n    <!-- Demo scripts for this page-->\\n    <script src="\', escape=False)\nresponse.write(URL(\'static\',\'template/js/demo/datatables-demo.js\'))\nresponse.write(\'"></script>\\n    <script src="\', escape=False)\nresponse.write(URL(\'static\',\'template/js/demo/chart-area-demo.js\'))\nresponse.write(\'"></script>\\n\\n  </body>\\n\\n</html>\', escape=False)'
p7
sS'snapshot'
p8
(dp9
S'exception'
p10
(dp11
S'__getslice__'
p12
S"<method-wrapper '__getslice__' of exceptions.AttributeError object>"
p13
sS'__str__'
p14
S"<method-wrapper '__str__' of exceptions.AttributeError object>"
p15
sS'__reduce__'
p16
S'<built-in method __reduce__ of exceptions.AttributeError object>'
p17
sS'__dict__'
p18
S'{}'
p19
sS'message'
p20
S"''"
p21
sS'__sizeof__'
p22
S'<built-in method __sizeof__ of exceptions.AttributeError object>'
p23
sS'__init__'
p24
S"<method-wrapper '__init__' of exceptions.AttributeError object>"
p25
sS'__setattr__'
p26
S"<method-wrapper '__setattr__' of exceptions.AttributeError object>"
p27
sS'__reduce_ex__'
p28
S'<built-in method __reduce_ex__ of exceptions.AttributeError object>'
p29
sS'__new__'
p30
S'<built-in method __new__ of type object>'
p31
sS'__format__'
p32
S'<built-in method __format__ of exceptions.AttributeError object>'
p33
sS'__class__'
p34
S"<type 'exceptions.AttributeError'>"
p35
sS'__doc__'
p36
S"'Attribute not found.'"
p37
sS'__getitem__'
p38
S"<method-wrapper '__getitem__' of exceptions.AttributeError object>"
p39
sS'__setstate__'
p40
S'<built-in method __setstate__ of exceptions.AttributeError object>'
p41
sS'__getattribute__'
p42
S"<method-wrapper '__getattribute__' of exceptions.AttributeError object>"
p43
sS'args'
p44
S'()'
p45
sS'__subclasshook__'
p46
S'<built-in method __subclasshook__ of type object>'
p47
sS'__unicode__'
p48
S'<built-in method __unicode__ of exceptions.AttributeError object>'
p49
sS'__delattr__'
p50
S"<method-wrapper '__delattr__' of exceptions.AttributeError object>"
p51
sS'__repr__'
p52
S"<method-wrapper '__repr__' of exceptions.AttributeError object>"
p53
sS'__hash__'
p54
S"<method-wrapper '__hash__' of exceptions.AttributeError object>"
p55
ssS'evalue'
p56
S''
sS'request'
p57
cgluon.html
XML_unpickle
p58
(S's9M\x01\x00<div><table><tr><td style="font-weight:bold;vertical-align:top;">ajax</td><td style="vertical-align:top;">:</td><td><div>False</div></td></tr><tr><td style="font-weight:bold;vertical-align:top;">application</td><td style="vertical-align:top;">:</td><td><div>ji103</div></td></tr><tr><td style="font-weight:bold;vertical-align:top;">args</td><td style="vertical-align:top;">:</td><td><div><table></table></div></td></tr><tr><td style="font-weight:bold;vertical-align:top;">cid</td><td style="vertical-align:top;">:</td><td><div>None</div></td></tr><tr><td style="font-weight:bold;vertical-align:top;">client</td><td style="vertical-align:top;">:</td><td><div>46.150.97.71</div></td></tr><tr><td style="font-weight:bold;vertical-align:top;">controller</td><td style="vertical-align:top;">:</td><td><div>default</div></td></tr><tr><td style="font-weight:bold;vertical-align:top;">cookies</td><td style="vertical-align:top;">:</td><td><div><table><tr><td style="font-weight:bold;vertical-align:top;">TawkConnectionTime</td><td style="vertical-align:top;">:</td><td><div>0<table><tr><td style="font-weight:bold;vertical-align:top;">comment</td><td style="vertical-align:top;">:</td><td><div></div></td></tr><tr><td style="font-weight:bold;vertical-align:top;">domain</td><td style="vertical-align:top;">:</td><td><div></div></td></tr><tr><td style="font-weight:bold;vertical-align:top;">expires</td><td style="vertical-align:top;">:</td><td><div></div></td></tr><tr><td style="font-weight:bold;vertical-align:top;">httponly</td><td style="vertical-align:top;">:</td><td><div></div></td></tr><tr><td style="font-weight:bold;vertical-align:top;">max-age</td><td style="vertical-align:top;">:</td><td><div></div></td></tr><tr><td style="font-weight:bold;vertical-align:top;">path</td><td style="vertical-align:top;">:</td><td><div></div></td></tr><tr><td style="font-weight:bold;vertical-align:top;">secure</td><td style="vertical-align:top;">:</td><td><div></div></td></tr><tr><td style="font-weight:bold;vertical-align:top;">version</td><td style="vertical-align:top;">:</td><td><div></div></td></tr></table></div></td></tr><tr><td style="font-weight:bold;vertical-align:top;">session_id_admin</td><td style="vertical-align:top;">:</td><td><div>46.150.97.71-f42eb3c8-680b-4f4c-9684-766b2375fd6b<table><tr><td style="font-weight:bold;vertical-align:top;">comment</td><td style="vertical-align:top;">:</td><td><div></div></td></tr><tr><td style="font-weight:bold;vertical-align:top;">domain</td><td style="vertical-align:top;">:</td><td><div></div></td></tr><tr><td style="font-weight:bold;vertical-align:top;">expires</td><td style="vertical-align:top;">:</td><td><div></div></td></tr><tr><td style="font-weight:bold;vertical-align:top;">httponly</td><td style="vertical-align:top;">:</td><td><div></div></td></tr><tr><td style="font-weight:bold;vertical-align:top;">max-age</td><td style="vertical-align:top;">:</td><td><div></div></td></tr><tr><td style="font-weight:bold;vertical-align:top;">path</td><td style="vertical-align:top;">:</td><td><div></div></td></tr><tr><td style="font-weight:bold;vertical-align:top;">secure</td><td style="vertical-align:top;">:</td><td><div></div></td></tr><tr><td style="font-weight:bold;vertical-align:top;">version</td><td style="vertical-align:top;">:</td><td><div></div></td></tr></table></div></td></tr><tr><td style="font-weight:bold;vertical-align:top;">session_id_av031</td><td style="vertical-align:top;">:</td><td><div>46.150.97.71-205f5f97-c893-48b8-8eb4-69d46dc9375c<table><tr><td style="font-weight:bold;vertical-align:top;">comment</td><td style="vertical-align:top;">:</td><td><div></div></td></tr><tr><td style="font-weight:bold;vertical-align:top;">domain</td><td style="vertical-align:top;">:</td><td><div></div></td></tr><tr><td style="font-weight:bold;vertical-align:top;">expires</td><td style="vertical-align:top;">:</td><td><div></div></td></tr><tr><td style="font-weight:bold;vertical-align:top;">httponly</td><td style="vertical-align:top;">:</td><td><div></div></td></tr><tr><td style="font-weight:bold;vertical-align:top;">max-age</td><td style="vertical-align:top;">:</td><td><div></div></td></tr><tr><td style="font-weight:bold;vertical-align:top;">path</td><td style="vertical-align:top;">:</td><td><div></div></td></tr><tr><td style="font-weight:bold;vertical-align:top;">secure</td><td style="vertical-align:top;">:</td><td><div></div></td></tr><tr><td style="font-weight:bold;vertical-align:top;">version</td><td style="vertical-align:top;">:</td><td><div></div></td></tr></table></div></td></tr><tr><td style="font-weight:bold;vertical-align:top;">session_id_ji103</td><td style="vertical-align:top;">:</td><td><div>46.150.97.71-9c472d86-a1d7-485b-9b9b-eb348811b7e8<table><tr><td style="font-weight:bold;vertical-align:top;">comment</td><td style="vertical-align:top;">:</td><td><div></div></td></tr><tr><td style="font-weight:bold;vertical-align:top;">domain</td><td style="vertical-align:top;">:</td><td><div></div></td></tr><tr><td style="font-weight:bold;vertical-align:top;">expires</td><td style="vertical-align:top;">:</td><td><div></div></td></tr><tr><td style="font-weight:bold;vertical-align:top;">httponly</td><td style="vertical-align:top;">:</td><td><div></div></td></tr><tr><td style="font-weight:bold;vertical-align:top;">max-age</td><td style="vertical-align:top;">:</td><td><div></div></td></tr><tr><td style="font-weight:bold;vertical-align:top;">path</td><td style="vertical-align:top;">:</td><td><div></div></td></tr><tr><td style="font-weight:bold;vertical-align:top;">secure</td><td style="vertical-align:top;">:</td><td><div></div></td></tr><tr><td style="font-weight:bold;vertical-align:top;">version</td><td style="vertical-align:top;">:</td><td><div></div></td></tr></table></div></td></tr><tr><td style="font-weight:bold;vertical-align:top;">session_id_ji104</td><td style="vertical-align:top;">:</td><td><div>46.150.97.71-90288aad-78ea-4d9c-9f23-8a9e3945d595<table><tr><td style="font-weight:bold;vertical-align:top;">comment</td><td style="vertical-align:top;">:</td><td><div></div></td></tr><tr><td style="font-weight:bold;vertical-align:top;">domain</td><td style="vertical-align:top;">:</td><td><div></div></td></tr><tr><td style="font-weight:bold;vertical-align:top;">expires</td><td style="vertical-align:top;">:</td><td><div></div></td></tr><tr><td style="font-weight:bold;vertical-align:top;">httponly</td><td style="vertical-align:top;">:</td><td><div></div></td></tr><tr><td style="font-weight:bold;vertical-align:top;">max-age</td><td style="vertical-align:top;">:</td><td><div></div></td></tr><tr><td style="font-weight:bold;vertical-align:top;">path</td><td style="vertical-align:top;">:</td><td><div></div></td></tr><tr><td style="font-weight:bold;vertical-align:top;">secure</td><td style="vertical-align:top;">:</td><td><div></div></td></tr><tr><td style="font-weight:bold;vertical-align:top;">version</td><td style="vertical-align:top;">:</td><td><div></div></td></tr></table></div></td></tr><tr><td style="font-weight:bold;vertical-align:top;">session_id_ji105</td><td style="vertical-align:top;">:</td><td><div>46.150.97.71-306f2f8c-590c-42b7-b4e8-8f59cfabb9a6<table><tr><td style="font-weight:bold;vertical-align:top;">comment</td><td style="vertical-align:top;">:</td><td><div></div></td></tr><tr><td style="font-weight:bold;vertical-align:top;">domain</td><td style="vertical-align:top;">:</td><td><div></div></td></tr><tr><td style="font-weight:bold;vertical-align:top;">expires</td><td style="vertical-align:top;">:</td><td><div></div></td></tr><tr><td style="font-weight:bold;vertical-align:top;">httponly</td><td style="vertical-align:top;">:</td><td><div></div></td></tr><tr><td style="font-weight:bold;vertical-align:top;">max-age</td><td style="vertical-align:top;">:</td><td><div></div></td></tr><tr><td style="font-weight:bold;vertical-align:top;">path</td><td style="vertical-align:top;">:</td><td><div></div></td></tr><tr><td style="font-weight:bold;vertical-align:top;">secure</td><td style="vertical-align:top;">:</td><td><div></div></td></tr><tr><td style="font-weight:bold;vertical-align:top;">version</td><td style="vertical-align:top;">:</td><td><div></div></td></tr></table></div></td></tr><tr><td style="font-weight:bold;vertical-align:top;">session_id_ji106</td><td style="vertical-align:top;">:</td><td><div>46.150.97.71-48403f1c-7395-4a96-b145-501540e59d85<table><tr><td style="font-weight:bold;vertical-align:top;">comment</td><td style="vertical-align:top;">:</td><td><div></div></td></tr><tr><td style="font-weight:bold;vertical-align:top;">domain</td><td style="vertical-align:top;">:</td><td><div></div></td></tr><tr><td style="font-weight:bold;vertical-align:top;">expires</td><td style="vertical-align:top;">:</td><td><div></div></td></tr><tr><td style="font-weight:bold;vertical-align:top;">httponly</td><td style="vertical-align:top;">:</td><td><div></div></td></tr><tr><td style="font-weight:bold;vertical-align:top;">max-age</td><td style="vertical-align:top;">:</td><td><div></div></td></tr><tr><td style="font-weight:bold;vertical-align:top;">path</td><td style="vertical-align:top;">:</td><td><div></div></td></tr><tr><td style="font-weight:bold;vertical-align:top;">secure</td><td style="vertical-align:top;">:</td><td><div></div></td></tr><tr><td style="font-weight:bold;vertical-align:top;">version</td><td style="vertical-align:top;">:</td><td><div></div></td></tr></table></div></td></tr><tr><td style="font-weight:bold;vertical-align:top;">session_id_ji107</td><td style="vertical-align:top;">:</td><td><div>46.150.97.71-6931a98e-071e-43f9-8155-30508df60d63<table><tr><td style="font-weight:bold;vertical-align:top;">comment</td><td style="vertical-align:top;">:</td><td><div></div></td></tr><tr><td style="font-weight:bold;vertical-align:top;">domain</td><td style="vertical-align:top;">:</td><td><div></div></td></tr><tr><td style="font-weight:bold;vertical-align:top;">expires</td><td style="vertical-align:top;">:</td><td><div></div></td></tr><tr><td style="font-weight:bold;vertical-align:top;">httponly</td><td style="vertical-align:top;">:</td><td><div></div></td></tr><tr><td style="font-weight:bold;vertical-align:top;">max-age</td><td style="vertical-align:top;">:</td><td><div></div></td></tr><tr><td style="font-weight:bold;vertical-align:top;">path</td><td style="vertical-align:top;">:</td><td><div></div></td></tr><tr><td style="font-weight:bold;vertical-align:top;">secure</td><td style="vertical-align:top;">:</td><td><div></div></td></tr><tr><td style="font-weight:bold;vertical-align:top;">version</td><td style="vertical-align:top;">:</td><td><div></div></td></tr></table></div></td></tr><tr><td style="font-weight:bold;vertical-align:top;">session_id_ji108</td><td style="vertical-align:top;">:</td><td><div>46.150.97.71-a8dd8a4d-794a-4c22-ba2e-9e2552ae05b2<table><tr><td style="font-weight:bold;vertical-align:top;">comment</td><td style="vertical-align:top;">:</td><td><div></div></td></tr><tr><td style="font-weight:bold;vertical-align:top;">domain</td><td style="vertical-align:top;">:</td><td><div></div></td></tr><tr><td style="font-weight:bold;vertical-align:top;">expires</td><td style="vertical-align:top;">:</td><td><div></div></td></tr><tr><td style="font-weight:bold;vertical-align:top;">httponly</td><td style="vertical-align:top;">:</td><td><div></div></td></tr><tr><td style="font-weight:bold;vertical-align:top;">max-age</td><td style="vertical-align:top;">:</td><td><div></div></td></tr><tr><td style="font-weight:bold;vertical-align:top;">path</td><td style="vertical-align:top;">:</td><td><div></div></td></tr><tr><td style="font-weight:bold;vertical-align:top;">secure</td><td style="vertical-align:top;">:</td><td><div></div></td></tr><tr><td style="font-weight:bold;vertical-align:top;">version</td><td style="vertical-align:top;">:</td><td><div></div></td></tr></table></div></td></tr><tr><td style="font-weight:bold;vertical-align:top;">session_id_ji109</td><td style="vertical-align:top;">:</td><td><div>46.150.97.71-6ce849d5-36a4-4afe-b918-dad3578657e4<table><tr><td style="font-weight:bold;vertical-align:top;">comment</td><td style="vertical-align:top;">:</td><td><div></div></td></tr><tr><td style="font-weight:bold;vertical-align:top;">domain</td><td style="vertical-align:top;">:</td><td><div></div></td></tr><tr><td style="font-weight:bold;vertical-align:top;">expires</td><td style="vertical-align:top;">:</td><td><div></div></td></tr><tr><td style="font-weight:bold;vertical-align:top;">httponly</td><td style="vertical-align:top;">:</td><td><div></div></td></tr><tr><td style="font-weight:bold;vertical-align:top;">max-age</td><td style="vertical-align:top;">:</td><td><div></div></td></tr><tr><td style="font-weight:bold;vertical-align:top;">path</td><td style="vertical-align:top;">:</td><td><div></div></td></tr><tr><td style="font-weight:bold;vertical-align:top;">secure</td><td style="vertical-align:top;">:</td><td><div></div></td></tr><tr><td style="font-weight:bold;vertical-align:top;">version</td><td style="vertical-align:top;">:</td><td><div></div></td></tr></table></div></td></tr><tr><td style="font-weight:bold;vertical-align:top;">session_id_ji110</td><td style="vertical-align:top;">:</td><td><div>46.150.97.71-381a9941-b211-4d98-89ac-096d98e0776a<table><tr><td style="font-weight:bold;vertical-align:top;">comment</td><td style="vertical-align:top;">:</td><td><div></div></td></tr><tr><td style="font-weight:bold;vertical-align:top;">domain</td><td style="vertical-align:top;">:</td><td><div></div></td></tr><tr><td style="font-weight:bold;vertical-align:top;">expires</td><td style="vertical-align:top;">:</td><td><div></div></td></tr><tr><td style="font-weight:bold;vertical-align:top;">httponly</td><td style="vertical-align:top;">:</td><td><div></div></td></tr><tr><td style="font-weight:bold;vertical-align:top;">max-age</td><td style="vertical-align:top;">:</td><td><div></div></td></tr><tr><td style="font-weight:bold;vertical-align:top;">path</td><td style="vertical-align:top;">:</td><td><div></div></td></tr><tr><td style="font-weight:bold;vertical-align:top;">secure</td><td style="vertical-align:top;">:</td><td><div></div></td></tr><tr><td style="font-weight:bold;vertical-align:top;">version</td><td style="vertical-align:top;">:</td><td><div></div></td></tr></table></div></td></tr><tr><td style="font-weight:bold;vertical-align:top;">session_id_ji111</td><td style="vertical-align:top;">:</td><td><div>46.150.97.71-93efbe34-cbb8-4f66-b1c8-5a54cf15fbd5<table><tr><td style="font-weight:bold;vertical-align:top;">comment</td><td style="vertical-align:top;">:</td><td><div></div></td></tr><tr><td style="font-weight:bold;vertical-align:top;">domain</td><td style="vertical-align:top;">:</td><td><div></div></td></tr><tr><td style="font-weight:bold;vertical-align:top;">expires</td><td style="vertical-align:top;">:</td><td><div></div></td></tr><tr><td style="font-weight:bold;vertical-align:top;">httponly</td><td style="vertical-align:top;">:</td><td><div></div></td></tr><tr><td style="font-weight:bold;vertical-align:top;">max-age</td><td style="vertical-align:top;">:</td><td><div></div></td></tr><tr><td style="font-weight:bold;vertical-align:top;">path</td><td style="vertical-align:top;">:</td><td><div></div></td></tr><tr><td style="font-weight:bold;vertical-align:top;">secure</td><td style="vertical-align:top;">:</td><td><div></div></td></tr><tr><td style="font-weight:bold;vertical-align:top;">version</td><td style="vertical-align:top;">:</td><td><div></div></td></tr></table></div></td></tr><tr><td style="font-weight:bold;vertical-align:top;">session_id_ji112</td><td style="vertical-align:top;">:</td><td><div>46.150.97.71-14f288fb-190a-46f1-97dc-083fa36900b8<table><tr><td style="font-weight:bold;vertical-align:top;">comment</td><td style="vertical-align:top;">:</td><td><div></div></td></tr><tr><td style="font-weight:bold;vertical-align:top;">domain</td><td style="vertical-align:top;">:</td><td><div></div></td></tr><tr><td style="font-weight:bold;vertical-align:top;">expires</td><td style="vertical-align:top;">:</td><td><div></div></td></tr><tr><td style="font-weight:bold;vertical-align:top;">httponly</td><td style="vertical-align:top;">:</td><td><div></div></td></tr><tr><td style="font-weight:bold;vertical-align:top;">max-age</td><td style="vertical-align:top;">:</td><td><div></div></td></tr><tr><td style="font-weight:bold;vertical-align:top;">path</td><td style="vertical-align:top;">:</td><td><div></div></td></tr><tr><td style="font-weight:bold;vertical-align:top;">secure</td><td style="vertical-align:top;">:</td><td><div></div></td></tr><tr><td style="font-weight:bold;vertical-align:top;">version</td><td style="vertical-align:top;">:</td><td><div></div></td></tr></table></div></td></tr><tr><td style="font-weight:bold;vertical-align:top;">session_id_ji113</td><td style="vertical-align:top;">:</td><td><div>46.150.97.71-1e86674e-09c3-43f1-8379-f951a53560ca<table><tr><td style="font-weight:bold;vertical-align:top;">comment</td><td style="vertical-align:top;">:</td><td><div></div></td></tr><tr><td style="font-weight:bold;vertical-align:top;">domain</td><td style="vertical-align:top;">:</td><td><div></div></td></tr><tr><td style="font-weight:bold;vertical-align:top;">expires</td><td style="vertical-align:top;">:</td><td><div></div></td></tr><tr><td style="font-weight:bold;vertical-align:top;">httponly</td><td style="vertical-align:top;">:</td><td><div></div></td></tr><tr><td style="font-weight:bold;vertical-align:top;">max-age</td><td style="vertical-align:top;">:</td><td><div></div></td></tr><tr><td style="font-weight:bold;vertical-align:top;">path</td><td style="vertical-align:top;">:</td><td><div></div></td></tr><tr><td style="font-weight:bold;vertical-align:top;">secure</td><td style="vertical-align:top;">:</td><td><div></div></td></tr><tr><td style="font-weight:bold;vertical-align:top;">version</td><td style="vertical-align:top;">:</td><td><div></div></td></tr></table></div></td></tr><tr><td style="font-weight:bold;vertical-align:top;">session_id_ji114</td><td style="vertical-align:top;">:</td><td><div>46.150.97.71-e0afe528-5d0b-4bd0-91c9-8d47ee742fc2<table><tr><td style="font-weight:bold;vertical-align:top;">comment</td><td style="vertical-align:top;">:</td><td><div></div></td></tr><tr><td style="font-weight:bold;vertical-align:top;">domain</td><td style="vertical-align:top;">:</td><td><div></div></td></tr><tr><td style="font-weight:bold;vertical-align:top;">expires</td><td style="vertical-align:top;">:</td><td><div></div></td></tr><tr><td style="font-weight:bold;vertical-align:top;">httponly</td><td style="vertical-align:top;">:</td><td><div></div></td></tr><tr><td style="font-weight:bold;vertical-align:top;">max-age</td><td style="vertical-align:top;">:</td><td><div></div></td></tr><tr><td style="font-weight:bold;vertical-align:top;">path</td><td style="vertical-align:top;">:</td><td><div></div></td></tr><tr><td style="font-weight:bold;vertical-align:top;">secure</td><td style="vertical-align:top;">:</td><td><div></div></td></tr><tr><td style="font-weight:bold;vertical-align:top;">version</td><td style="vertical-align:top;">:</td><td><div></div></td></tr></table></div></td></tr><tr><td style="font-weight:bold;vertical-align:top;">session_id_ji115</td><td style="vertical-align:top;">:</td><td><div>46.150.97.71-e8b2f892-b6d1-42ce-908a-829788dbff8a<table><tr><td style="font-weight:bold;vertical-align:top;">comment</td><td style="vertical-align:top;">:</td><td><div></div></td></tr><tr><td style="font-weight:bold;vertical-align:top;">domain</td><td style="vertical-align:top;">:</td><td><div></div></td></tr><tr><td style="font-weight:bold;vertical-align:top;">expires</td><td style="vertical-align:top;">:</td><td><div></div></td></tr><tr><td style="font-weight:bold;vertical-align:top;">httponly</td><td style="vertical-align:top;">:</td><td><div></div></td></tr><tr><td style="font-weight:bold;vertical-align:top;">max-age</td><td style="vertical-align:top;">:</td><td><div></div></td></tr><tr><td style="font-weight:bold;vertical-align:top;">path</td><td style="vertical-align:top;">:</td><td><div></div></td></tr><tr><td style="font-weight:bold;vertical-align:top;">secure</td><td style="vertical-align:top;">:</td><td><div></div></td></tr><tr><td style="font-weight:bold;vertical-align:top;">version</td><td style="vertical-align:top;">:</td><td><div></div></td></tr></table></div></td></tr><tr><td style="font-weight:bold;vertical-align:top;">session_id_ji116</td><td style="vertical-align:top;">:</td><td><div>46.150.97.71-870fc22d-032f-40b9-a268-b18df08e72e0<table><tr><td style="font-weight:bold;vertical-align:top;">comment</td><td style="vertical-align:top;">:</td><td><div></div></td></tr><tr><td style="font-weight:bold;vertical-align:top;">domain</td><td style="vertical-align:top;">:</td><td><div></div></td></tr><tr><td style="font-weight:bold;vertical-align:top;">expires</td><td style="vertical-align:top;">:</td><td><div></div></td></tr><tr><td style="font-weight:bold;vertical-align:top;">httponly</td><td style="vertical-align:top;">:</td><td><div></div></td></tr><tr><td style="font-weight:bold;vertical-align:top;">max-age</td><td style="vertical-align:top;">:</td><td><div></div></td></tr><tr><td style="font-weight:bold;vertical-align:top;">path</td><td style="vertical-align:top;">:</td><td><div></div></td></tr><tr><td style="font-weight:bold;vertical-align:top;">secure</td><td style="vertical-align:top;">:</td><td><div></div></td></tr><tr><td style="font-weight:bold;vertical-align:top;">version</td><td style="vertical-align:top;">:</td><td><div></div></td></tr></table></div></td></tr><tr><td style="font-weight:bold;vertical-align:top;">session_id_ji117</td><td style="vertical-align:top;">:</td><td><div>46.150.97.71-1b2e53ca-8a69-4aa6-bf45-edf6c5cd96df<table><tr><td style="font-weight:bold;vertical-align:top;">comment</td><td style="vertical-align:top;">:</td><td><div></div></td></tr><tr><td style="font-weight:bold;vertical-align:top;">domain</td><td style="vertical-align:top;">:</td><td><div></div></td></tr><tr><td style="font-weight:bold;vertical-align:top;">expires</td><td style="vertical-align:top;">:</td><td><div></div></td></tr><tr><td style="font-weight:bold;vertical-align:top;">httponly</td><td style="vertical-align:top;">:</td><td><div></div></td></tr><tr><td style="font-weight:bold;vertical-align:top;">max-age</td><td style="vertical-align:top;">:</td><td><div></div></td></tr><tr><td style="font-weight:bold;vertical-align:top;">path</td><td style="vertical-align:top;">:</td><td><div></div></td></tr><tr><td style="font-weight:bold;vertical-align:top;">secure</td><td style="vertical-align:top;">:</td><td><div></div></td></tr><tr><td style="font-weight:bold;vertical-align:top;">version</td><td style="vertical-align:top;">:</td><td><div></div></td></tr></table></div></td></tr><tr><td style="font-weight:bold;vertical-align:top;">session_id_ji118</td><td style="vertical-align:top;">:</td><td><div>46.150.97.71-fae61735-0564-4b51-88f6-a9251dd3f43e<table><tr><td style="font-weight:bold;vertical-align:top;">comment</td><td style="vertical-align:top;">:</td><td><div></div></td></tr><tr><td style="font-weight:bold;vertical-align:top;">domain</td><td style="vertical-align:top;">:</td><td><div></div></td></tr><tr><td style="font-weight:bold;vertical-align:top;">expires</td><td style="vertical-align:top;">:</td><td><div></div></td></tr><tr><td style="font-weight:bold;vertical-align:top;">httponly</td><td style="vertical-align:top;">:</td><td><div></div></td></tr><tr><td style="font-weight:bold;vertical-align:top;">max-age</td><td style="vertical-align:top;">:</td><td><div></div></td></tr><tr><td style="font-weight:bold;vertical-align:top;">path</td><td style="vertical-align:top;">:</td><td><div></div></td></tr><tr><td style="font-weight:bold;vertical-align:top;">secure</td><td style="vertical-align:top;">:</td><td><div></div></td></tr><tr><td style="font-weight:bold;vertical-align:top;">version</td><td style="vertical-align:top;">:</td><td><div></div></td></tr></table></div></td></tr><tr><td style="font-weight:bold;vertical-align:top;">session_id_ji119</td><td style="vertical-align:top;">:</td><td><div>46.150.97.71-4c77fd9e-549c-454e-b23a-9dd3a808828f<table><tr><td style="font-weight:bold;vertical-align:top;">comment</td><td style="vertical-align:top;">:</td><td><div></div></td></tr><tr><td style="font-weight:bold;vertical-align:top;">domain</td><td style="vertical-align:top;">:</td><td><div></div></td></tr><tr><td style="font-weight:bold;vertical-align:top;">expires</td><td style="vertical-align:top;">:</td><td><div></div></td></tr><tr><td style="font-weight:bold;vertical-align:top;">httponly</td><td style="vertical-align:top;">:</td><td><div></div></td></tr><tr><td style="font-weight:bold;vertical-align:top;">max-age</td><td style="vertical-align:top;">:</td><td><div></div></td></tr><tr><td style="font-weight:bold;vertical-align:top;">path</td><td style="vertical-align:top;">:</td><td><div></div></td></tr><tr><td style="font-weight:bold;vertical-align:top;">secure</td><td style="vertical-align:top;">:</td><td><div></div></td></tr><tr><td style="font-weight:bold;vertical-align:top;">version</td><td style="vertical-align:top;">:</td><td><div></div></td></tr></table></div></td></tr><tr><td style="font-weight:bold;vertical-align:top;">session_id_ji120</td><td style="vertical-align:top;">:</td><td><div>46.150.97.71-7e46f649-7fa7-4864-84aa-bea31802381c<table><tr><td style="font-weight:bold;vertical-align:top;">comment</td><td style="vertical-align:top;">:</td><td><div></div></td></tr><tr><td style="font-weight:bold;vertical-align:top;">domain</td><td style="vertical-align:top;">:</td><td><div></div></td></tr><tr><td style="font-weight:bold;vertical-align:top;">expires</td><td style="vertical-align:top;">:</td><td><div></div></td></tr><tr><td style="font-weight:bold;vertical-align:top;">httponly</td><td style="vertical-align:top;">:</td><td><div></div></td></tr><tr><td style="font-weight:bold;vertical-align:top;">max-age</td><td style="vertical-align:top;">:</td><td><div></div></td></tr><tr><td style="font-weight:bold;vertical-align:top;">path</td><td style="vertical-align:top;">:</td><td><div></div></td></tr><tr><td style="font-weight:bold;vertical-align:top;">secure</td><td style="vertical-align:top;">:</td><td><div></div></td></tr><tr><td style="font-weight:bold;vertical-align:top;">version</td><td style="vertical-align:top;">:</td><td><div></div></td></tr></table></div></td></tr><tr><td style="font-weight:bold;vertical-align:top;">session_id_ji121</td><td style="vertical-align:top;">:</td><td><div>46.150.97.71-ea944f99-39da-44e7-960d-11ac737b7c62<table><tr><td style="font-weight:bold;vertical-align:top;">comment</td><td style="vertical-align:top;">:</td><td><div></div></td></tr><tr><td style="font-weight:bold;vertical-align:top;">domain</td><td style="vertical-align:top;">:</td><td><div></div></td></tr><tr><td style="font-weight:bold;vertical-align:top;">expires</td><td style="vertical-align:top;">:</td><td><div></div></td></tr><tr><td style="font-weight:bold;vertical-align:top;">httponly</td><td style="vertical-align:top;">:</td><td><div></div></td></tr><tr><td style="font-weight:bold;vertical-align:top;">max-age</td><td style="vertical-align:top;">:</td><td><div></div></td></tr><tr><td style="font-weight:bold;vertical-align:top;">path</td><td style="vertical-align:top;">:</td><td><div></div></td></tr><tr><td style="font-weight:bold;vertical-align:top;">secure</td><td style="vertical-align:top;">:</td><td><div></div></td></tr><tr><td style="font-weight:bold;vertical-align:top;">version</td><td style="vertical-align:top;">:</td><td><div></div></td></tr></table></div></td></tr><tr><td style="font-weight:bold;vertical-align:top;">session_id_ji122</td><td style="vertical-align:top;">:</td><td><div>46.150.97.71-4fb7f49b-9408-4442-a4fb-2aed02ed3bdc<table><tr><td style="font-weight:bold;vertical-align:top;">comment</td><td style="vertical-align:top;">:</td><td><div></div></td></tr><tr><td style="font-weight:bold;vertical-align:top;">domain</td><td style="vertical-align:top;">:</td><td><div></div></td></tr><tr><td style="font-weight:bold;vertical-align:top;">expires</td><td style="vertical-align:top;">:</td><td><div></div></td></tr><tr><td style="font-weight:bold;vertical-align:top;">httponly</td><td style="vertical-align:top;">:</td><td><div></div></td></tr><tr><td style="font-weight:bold;vertical-align:top;">max-age</td><td style="vertical-align:top;">:</td><td><div></div></td></tr><tr><td style="font-weight:bold;vertical-align:top;">path</td><td style="vertical-align:top;">:</td><td><div></div></td></tr><tr><td style="font-weight:bold;vertical-align:top;">secure</td><td style="vertical-align:top;">:</td><td><div></div></td></tr><tr><td style="font-weight:bold;vertical-align:top;">version</td><td style="vertical-align:top;">:</td><td><div></div></td></tr></table></div></td></tr><tr><td style="font-weight:bold;vertical-align:top;">session_id_ji123</td><td style="vertical-align:top;">:</td><td><div>46.150.97.71-f6d4aa7d-483e-482d-a125-0060e51295cf<table><tr><td style="font-weight:bold;vertical-align:top;">comment</td><td style="vertical-align:top;">:</td><td><div></div></td></tr><tr><td style="font-weight:bold;vertical-align:top;">domain</td><td style="vertical-align:top;">:</td><td><div></div></td></tr><tr><td style="font-weight:bold;vertical-align:top;">expires</td><td style="vertical-align:top;">:</td><td><div></div></td></tr><tr><td style="font-weight:bold;vertical-align:top;">httponly</td><td style="vertical-align:top;">:</td><td><div></div></td></tr><tr><td style="font-weight:bold;vertical-align:top;">max-age</td><td style="vertical-align:top;">:</td><td><div></div></td></tr><tr><td style="font-weight:bold;vertical-align:top;">path</td><td style="vertical-align:top;">:</td><td><div></div></td></tr><tr><td style="font-weight:bold;vertical-align:top;">secure</td><td style="vertical-align:top;">:</td><td><div></div></td></tr><tr><td style="font-weight:bold;vertical-align:top;">version</td><td style="vertical-align:top;">:</td><td><div></div></td></tr></table></div></td></tr><tr><td style="font-weight:bold;vertical-align:top;">session_id_ji124</td><td style="vertical-align:top;">:</td><td><div>46.150.97.71-c1073e95-7998-44ac-b2bd-9dd83cca0a66<table><tr><td style="font-weight:bold;vertical-align:top;">comment</td><td style="vertical-align:top;">:</td><td><div></div></td></tr><tr><td style="font-weight:bold;vertical-align:top;">domain</td><td style="vertical-align:top;">:</td><td><div></div></td></tr><tr><td style="font-weight:bold;vertical-align:top;">expires</td><td style="vertical-align:top;">:</td><td><div></div></td></tr><tr><td style="font-weight:bold;vertical-align:top;">httponly</td><td style="vertical-align:top;">:</td><td><div></div></td></tr><tr><td style="font-weight:bold;vertical-align:top;">max-age</td><td style="vertical-align:top;">:</td><td><div></div></td></tr><tr><td style="font-weight:bold;vertical-align:top;">path</td><td style="vertical-align:top;">:</td><td><div></div></td></tr><tr><td style="font-weight:bold;vertical-align:top;">secure</td><td style="vertical-align:top;">:</td><td><div></div></td></tr><tr><td style="font-weight:bold;vertical-align:top;">version</td><td style="vertical-align:top;">:</td><td><div></div></td></tr></table></div></td></tr><tr><td style="font-weight:bold;vertical-align:top;">session_id_ji125</td><td style="vertical-align:top;">:</td><td><div>46.150.97.71-9fdc52d3-3b9c-4721-ace0-07d74229946f<table><tr><td style="font-weight:bold;vertical-align:top;">comment</td><td style="vertical-align:top;">:</td><td><div></div></td></tr><tr><td style="font-weight:bold;vertical-align:top;">domain</td><td style="vertical-align:top;">:</td><td><div></div></td></tr><tr><td style="font-weight:bold;vertical-align:top;">expires</td><td style="vertical-align:top;">:</td><td><div></div></td></tr><tr><td style="font-weight:bold;vertical-align:top;">httponly</td><td style="vertical-align:top;">:</td><td><div></div></td></tr><tr><td style="font-weight:bold;vertical-align:top;">max-age</td><td style="vertical-align:top;">:</td><td><div></div></td></tr><tr><td style="font-weight:bold;vertical-align:top;">path</td><td style="vertical-align:top;">:</td><td><div></div></td></tr><tr><td style="font-weight:bold;vertical-align:top;">secure</td><td style="vertical-align:top;">:</td><td><div></div></td></tr><tr><td style="font-weight:bold;vertical-align:top;">version</td><td style="vertical-align:top;">:</td><td><div></div></td></tr></table></div></td></tr><tr><td style="font-weight:bold;vertical-align:top;">session_id_ji128</td><td style="vertical-align:top;">:</td><td><div>46.150.97.71-18df5252-5230-4050-b8e4-95e730c940ef<table><tr><td style="font-weight:bold;vertical-align:top;">comment</td><td style="vertical-align:top;">:</td><td><div></div></td></tr><tr><td style="font-weight:bold;vertical-align:top;">domain</td><td style="vertical-align:top;">:</td><td><div></div></td></tr><tr><td style="font-weight:bold;vertical-align:top;">expires</td><td style="vertical-align:top;">:</td><td><div></div></td></tr><tr><td style="font-weight:bold;vertical-align:top;">httponly</td><td style="vertical-align:top;">:</td><td><div></div></td></tr><tr><td style="font-weight:bold;vertical-align:top;">max-age</td><td style="vertical-align:top;">:</td><td><div></div></td></tr><tr><td style="font-weight:bold;vertical-align:top;">path</td><td style="vertical-align:top;">:</td><td><div></div></td></tr><tr><td style="font-weight:bold;vertical-align:top;">secure</td><td style="vertical-align:top;">:</td><td><div></div></td></tr><tr><td style="font-weight:bold;vertical-align:top;">version</td><td style="vertical-align:top;">:</td><td><div></div></td></tr></table></div></td></tr><tr><td style="font-weight:bold;vertical-align:top;">session_id_ji129</td><td style="vertical-align:top;">:</td><td><div>46.150.97.71-1cb7bdba-f24b-4119-8d29-49e1378e88ce<table><tr><td style="font-weight:bold;vertical-align:top;">comment</td><td style="vertical-align:top;">:</td><td><div></div></td></tr><tr><td style="font-weight:bold;vertical-align:top;">domain</td><td style="vertical-align:top;">:</td><td><div></div></td></tr><tr><td style="font-weight:bold;vertical-align:top;">expires</td><td style="vertical-align:top;">:</td><td><div></div></td></tr><tr><td style="font-weight:bold;vertical-align:top;">httponly</td><td style="vertical-align:top;">:</td><td><div></div></td></tr><tr><td style="font-weight:bold;vertical-align:top;">max-age</td><td style="vertical-align:top;">:</td><td><div></div></td></tr><tr><td style="font-weight:bold;vertical-align:top;">path</td><td style="vertical-align:top;">:</td><td><div></div></td></tr><tr><td style="font-weight:bold;vertical-align:top;">secure</td><td style="vertical-align:top;">:</td><td><div></div></td></tr><tr><td style="font-weight:bold;vertical-align:top;">version</td><td style="vertical-align:top;">:</td><td><div></div></td></tr></table></div></td></tr><tr><td style="font-weight:bold;vertical-align:top;">session_id_ji130</td><td style="vertical-align:top;">:</td><td><div>46.150.97.71-6ca5deef-aaa5-4437-b588-61dab6d1bd9c<table><tr><td style="font-weight:bold;vertical-align:top;">comment</td><td style="vertical-align:top;">:</td><td><div></div></td></tr><tr><td style="font-weight:bold;vertical-align:top;">domain</td><td style="vertical-align:top;">:</td><td><div></div></td></tr><tr><td style="font-weight:bold;vertical-align:top;">expires</td><td style="vertical-align:top;">:</td><td><div></div></td></tr><tr><td style="font-weight:bold;vertical-align:top;">httponly</td><td style="vertical-align:top;">:</td><td><div></div></td></tr><tr><td style="font-weight:bold;vertical-align:top;">max-age</td><td style="vertical-align:top;">:</td><td><div></div></td></tr><tr><td style="font-weight:bold;vertical-align:top;">path</td><td style="vertical-align:top;">:</td><td><div></div></td></tr><tr><td style="font-weight:bold;vertical-align:top;">secure</td><td style="vertical-align:top;">:</td><td><div></div></td></tr><tr><td style="font-weight:bold;vertical-align:top;">version</td><td style="vertical-align:top;">:</td><td><div></div></td></tr></table></div></td></tr><tr><td style="font-weight:bold;vertical-align:top;">session_id_ji131</td><td style="vertical-align:top;">:</td><td><div>46.150.97.71-2bf3a80b-16a1-43cb-98a5-194be5ea5b0e<table><tr><td style="font-weight:bold;vertical-align:top;">comment</td><td style="vertical-align:top;">:</td><td><div></div></td></tr><tr><td style="font-weight:bold;vertical-align:top;">domain</td><td style="vertical-align:top;">:</td><td><div></div></td></tr><tr><td style="font-weight:bold;vertical-align:top;">expires</td><td style="vertical-align:top;">:</td><td><div></div></td></tr><tr><td style="font-weight:bold;vertical-align:top;">httponly</td><td style="vertical-align:top;">:</td><td><div></div></td></tr><tr><td style="font-weight:bold;vertical-align:top;">max-age</td><td style="vertical-align:top;">:</td><td><div></div></td></tr><tr><td style="font-weight:bold;vertical-align:top;">path</td><td style="vertical-align:top;">:</td><td><div></div></td></tr><tr><td style="font-weight:bold;vertical-align:top;">secure</td><td style="vertical-align:top;">:</td><td><div></div></td></tr><tr><td style="font-weight:bold;vertical-align:top;">version</td><td style="vertical-align:top;">:</td><td><div></div></td></tr></table></div></td></tr><tr><td style="font-weight:bold;vertical-align:top;">session_id_ji132</td><td style="vertical-align:top;">:</td><td><div>46.150.97.71-214209a2-36f3-4a5f-94f7-74ba2d28b5a2<table><tr><td style="font-weight:bold;vertical-align:top;">comment</td><td style="vertical-align:top;">:</td><td><div></div></td></tr><tr><td style="font-weight:bold;vertical-align:top;">domain</td><td style="vertical-align:top;">:</td><td><div></div></td></tr><tr><td style="font-weight:bold;vertical-align:top;">expires</td><td style="vertical-align:top;">:</td><td><div></div></td></tr><tr><td style="font-weight:bold;vertical-align:top;">httponly</td><td style="vertical-align:top;">:</td><td><div></div></td></tr><tr><td style="font-weight:bold;vertical-align:top;">max-age</td><td style="vertical-align:top;">:</td><td><div></div></td></tr><tr><td style="font-weight:bold;vertical-align:top;">path</td><td style="vertical-align:top;">:</td><td><div></div></td></tr><tr><td style="font-weight:bold;vertical-align:top;">secure</td><td style="vertical-align:top;">:</td><td><div></div></td></tr><tr><td style="font-weight:bold;vertical-align:top;">version</td><td style="vertical-align:top;">:</td><td><div></div></td></tr></table></div></td></tr><tr><td style="font-weight:bold;vertical-align:top;">session_id_ji133</td><td style="vertical-align:top;">:</td><td><div>46.150.97.71-3c01da5a-cbcc-4773-a27f-7a7f9451912b<table><tr><td style="font-weight:bold;vertical-align:top;">comment</td><td style="vertical-align:top;">:</td><td><div></div></td></tr><tr><td style="font-weight:bold;vertical-align:top;">domain</td><td style="vertical-align:top;">:</td><td><div></div></td></tr><tr><td style="font-weight:bold;vertical-align:top;">expires</td><td style="vertical-align:top;">:</td><td><div></div></td></tr><tr><td style="font-weight:bold;vertical-align:top;">httponly</td><td style="vertical-align:top;">:</td><td><div></div></td></tr><tr><td style="font-weight:bold;vertical-align:top;">max-age</td><td style="vertical-align:top;">:</td><td><div></div></td></tr><tr><td style="font-weight:bold;vertical-align:top;">path</td><td style="vertical-align:top;">:</td><td><div></div></td></tr><tr><td style="font-weight:bold;vertical-align:top;">secure</td><td style="vertical-align:top;">:</td><td><div></div></td></tr><tr><td style="font-weight:bold;vertical-align:top;">version</td><td style="vertical-align:top;">:</td><td><div></div></td></tr></table></div></td></tr><tr><td style="font-weight:bold;vertical-align:top;">session_id_ji134</td><td style="vertical-align:top;">:</td><td><div>46.150.97.71-4c0b3138-a80c-46f3-868b-f41dacfc0448<table><tr><td style="font-weight:bold;vertical-align:top;">comment</td><td style="vertical-align:top;">:</td><td><div></div></td></tr><tr><td style="font-weight:bold;vertical-align:top;">domain</td><td style="vertical-align:top;">:</td><td><div></div></td></tr><tr><td style="font-weight:bold;vertical-align:top;">expires</td><td style="vertical-align:top;">:</td><td><div></div></td></tr><tr><td style="font-weight:bold;vertical-align:top;">httponly</td><td style="vertical-align:top;">:</td><td><div></div></td></tr><tr><td style="font-weight:bold;vertical-align:top;">max-age</td><td style="vertical-align:top;">:</td><td><div></div></td></tr><tr><td style="font-weight:bold;vertical-align:top;">path</td><td style="vertical-align:top;">:</td><td><div></div></td></tr><tr><td style="font-weight:bold;vertical-align:top;">secure</td><td style="vertical-align:top;">:</td><td><div></div></td></tr><tr><td style="font-weight:bold;vertical-align:top;">version</td><td style="vertical-align:top;">:</td><td><div></div></td></tr></table></div></td></tr><tr><td style="font-weight:bold;vertical-align:top;">session_id_ji135</td><td style="vertical-align:top;">:</td><td><div>46.150.97.71-c8e73a5d-2d50-4f1e-a895-656ad479a606<table><tr><td style="font-weight:bold;vertical-align:top;">comment</td><td style="vertical-align:top;">:</td><td><div></div></td></tr><tr><td style="font-weight:bold;vertical-align:top;">domain</td><td style="vertical-align:top;">:</td><td><div></div></td></tr><tr><td style="font-weight:bold;vertical-align:top;">expires</td><td style="vertical-align:top;">:</td><td><div></div></td></tr><tr><td style="font-weight:bold;vertical-align:top;">httponly</td><td style="vertical-align:top;">:</td><td><div></div></td></tr><tr><td style="font-weight:bold;vertical-align:top;">max-age</td><td style="vertical-align:top;">:</td><td><div></div></td></tr><tr><td style="font-weight:bold;vertical-align:top;">path</td><td style="vertical-align:top;">:</td><td><div></div></td></tr><tr><td style="font-weight:bold;vertical-align:top;">secure</td><td style="vertical-align:top;">:</td><td><div></div></td></tr><tr><td style="font-weight:bold;vertical-align:top;">version</td><td style="vertical-align:top;">:</td><td><div></div></td></tr></table></div></td></tr><tr><td style="font-weight:bold;vertical-align:top;">session_id_ji136</td><td style="vertical-align:top;">:</td><td><div>46.150.97.71-b0b8db55-cd69-4b25-bcbb-fbe903f26a87<table><tr><td style="font-weight:bold;vertical-align:top;">comment</td><td style="vertical-align:top;">:</td><td><div></div></td></tr><tr><td style="font-weight:bold;vertical-align:top;">domain</td><td style="vertical-align:top;">:</td><td><div></div></td></tr><tr><td style="font-weight:bold;vertical-align:top;">expires</td><td style="vertical-align:top;">:</td><td><div></div></td></tr><tr><td style="font-weight:bold;vertical-align:top;">httponly</td><td style="vertical-align:top;">:</td><td><div></div></td></tr><tr><td style="font-weight:bold;vertical-align:top;">max-age</td><td style="vertical-align:top;">:</td><td><div></div></td></tr><tr><td style="font-weight:bold;vertical-align:top;">path</td><td style="vertical-align:top;">:</td><td><div></div></td></tr><tr><td style="font-weight:bold;vertical-align:top;">secure</td><td style="vertical-align:top;">:</td><td><div></div></td></tr><tr><td style="font-weight:bold;vertical-align:top;">version</td><td style="vertical-align:top;">:</td><td><div></div></td></tr></table></div></td></tr><tr><td style="font-weight:bold;vertical-align:top;">session_id_ji161</td><td style="vertical-align:top;">:</td><td><div>46.150.97.71-7b6ac82f-a5c8-41be-a00d-70bb679b82d8<table><tr><td style="font-weight:bold;vertical-align:top;">comment</td><td style="vertical-align:top;">:</td><td><div></div></td></tr><tr><td style="font-weight:bold;vertical-align:top;">domain</td><td style="vertical-align:top;">:</td><td><div></div></td></tr><tr><td style="font-weight:bold;vertical-align:top;">expires</td><td style="vertical-align:top;">:</td><td><div></div></td></tr><tr><td style="font-weight:bold;vertical-align:top;">httponly</td><td style="vertical-align:top;">:</td><td><div></div></td></tr><tr><td style="font-weight:bold;vertical-align:top;">max-age</td><td style="vertical-align:top;">:</td><td><div></div></td></tr><tr><td style="font-weight:bold;vertical-align:top;">path</td><td style="vertical-align:top;">:</td><td><div></div></td></tr><tr><td style="font-weight:bold;vertical-align:top;">secure</td><td style="vertical-align:top;">:</td><td><div></div></td></tr><tr><td style="font-weight:bold;vertical-align:top;">version</td><td style="vertical-align:top;">:</td><td><div></div></td></tr></table></div></td></tr><tr><td style="font-weight:bold;vertical-align:top;">session_id_ji162</td><td style="vertical-align:top;">:</td><td><div>46.150.97.71-113a2178-b3c4-46b3-b27a-2c82bc8608ee<table><tr><td style="font-weight:bold;vertical-align:top;">comment</td><td style="vertical-align:top;">:</td><td><div></div></td></tr><tr><td style="font-weight:bold;vertical-align:top;">domain</td><td style="vertical-align:top;">:</td><td><div></div></td></tr><tr><td style="font-weight:bold;vertical-align:top;">expires</td><td style="vertical-align:top;">:</td><td><div></div></td></tr><tr><td style="font-weight:bold;vertical-align:top;">httponly</td><td style="vertical-align:top;">:</td><td><div></div></td></tr><tr><td style="font-weight:bold;vertical-align:top;">max-age</td><td style="vertical-align:top;">:</td><td><div></div></td></tr><tr><td style="font-weight:bold;vertical-align:top;">path</td><td style="vertical-align:top;">:</td><td><div></div></td></tr><tr><td style="font-weight:bold;vertical-align:top;">secure</td><td style="vertical-align:top;">:</td><td><div></div></td></tr><tr><td style="font-weight:bold;vertical-align:top;">version</td><td style="vertical-align:top;">:</td><td><div></div></td></tr></table></div></td></tr><tr><td style="font-weight:bold;vertical-align:top;">session_id_ji163</td><td style="vertical-align:top;">:</td><td><div>46.150.97.71-84b20e01-5fd1-4ed1-bc27-ebf19d1d900b<table><tr><td style="font-weight:bold;vertical-align:top;">comment</td><td style="vertical-align:top;">:</td><td><div></div></td></tr><tr><td style="font-weight:bold;vertical-align:top;">domain</td><td style="vertical-align:top;">:</td><td><div></div></td></tr><tr><td style="font-weight:bold;vertical-align:top;">expires</td><td style="vertical-align:top;">:</td><td><div></div></td></tr><tr><td style="font-weight:bold;vertical-align:top;">httponly</td><td style="vertical-align:top;">:</td><td><div></div></td></tr><tr><td style="font-weight:bold;vertical-align:top;">max-age</td><td style="vertical-align:top;">:</td><td><div></div></td></tr><tr><td style="font-weight:bold;vertical-align:top;">path</td><td style="vertical-align:top;">:</td><td><div></div></td></tr><tr><td style="font-weight:bold;vertical-align:top;">secure</td><td style="vertical-align:top;">:</td><td><div></div></td></tr><tr><td style="font-weight:bold;vertical-align:top;">version</td><td style="vertical-align:top;">:</td><td><div></div></td></tr></table></div></td></tr><tr><td style="font-weight:bold;vertical-align:top;">session_id_ji164</td><td style="vertical-align:top;">:</td><td><div>46.150.97.71-32106685-559d-423c-a86b-8621f6351319<table><tr><td style="font-weight:bold;vertical-align:top;">comment</td><td style="vertical-align:top;">:</td><td><div></div></td></tr><tr><td style="font-weight:bold;vertical-align:top;">domain</td><td style="vertical-align:top;">:</td><td><div></div></td></tr><tr><td style="font-weight:bold;vertical-align:top;">expires</td><td style="vertical-align:top;">:</td><td><div></div></td></tr><tr><td style="font-weight:bold;vertical-align:top;">httponly</td><td style="vertical-align:top;">:</td><td><div></div></td></tr><tr><td style="font-weight:bold;vertical-align:top;">max-age</td><td style="vertical-align:top;">:</td><td><div></div></td></tr><tr><td style="font-weight:bold;vertical-align:top;">path</td><td style="vertical-align:top;">:</td><td><div></div></td></tr><tr><td style="font-weight:bold;vertical-align:top;">secure</td><td style="vertical-align:top;">:</td><td><div></div></td></tr><tr><td style="font-weight:bold;vertical-align:top;">version</td><td style="vertical-align:top;">:</td><td><div></div></td></tr></table></div></td></tr><tr><td style="font-weight:bold;vertical-align:top;">session_id_ji165</td><td style="vertical-align:top;">:</td><td><div>46.150.97.71-24631871-6f50-4b59-a69f-b56dfece2721<table><tr><td style="font-weight:bold;vertical-align:top;">comment</td><td style="vertical-align:top;">:</td><td><div></div></td></tr><tr><td style="font-weight:bold;vertical-align:top;">domain</td><td style="vertical-align:top;">:</td><td><div></div></td></tr><tr><td style="font-weight:bold;vertical-align:top;">expires</td><td style="vertical-align:top;">:</td><td><div></div></td></tr><tr><td style="font-weight:bold;vertical-align:top;">httponly</td><td style="vertical-align:top;">:</td><td><div></div></td></tr><tr><td style="font-weight:bold;vertical-align:top;">max-age</td><td style="vertical-align:top;">:</td><td><div></div></td></tr><tr><td style="font-weight:bold;vertical-align:top;">path</td><td style="vertical-align:top;">:</td><td><div></div></td></tr><tr><td style="font-weight:bold;vertical-align:top;">secure</td><td style="vertical-align:top;">:</td><td><div></div></td></tr><tr><td style="font-weight:bold;vertical-align:top;">version</td><td style="vertical-align:top;">:</td><td><div></div></td></tr></table></div></td></tr><tr><td style="font-weight:bold;vertical-align:top;">session_id_ji190</td><td style="vertical-align:top;">:</td><td><div>46.150.97.71-ec75f8cd-c142-4606-a488-2540a99aae61<table><tr><td style="font-weight:bold;vertical-align:top;">comment</td><td style="vertical-align:top;">:</td><td><div></div></td></tr><tr><td style="font-weight:bold;vertical-align:top;">domain</td><td style="vertical-align:top;">:</td><td><div></div></td></tr><tr><td style="font-weight:bold;vertical-align:top;">expires</td><td style="vertical-align:top;">:</td><td><div></div></td></tr><tr><td style="font-weight:bold;vertical-align:top;">httponly</td><td style="vertical-align:top;">:</td><td><div></div></td></tr><tr><td style="font-weight:bold;vertical-align:top;">max-age</td><td style="vertical-align:top;">:</td><td><div></div></td></tr><tr><td style="font-weight:bold;vertical-align:top;">path</td><td style="vertical-align:top;">:</td><td><div></div></td></tr><tr><td style="font-weight:bold;vertical-align:top;">secure</td><td style="vertical-align:top;">:</td><td><div></div></td></tr><tr><td style="font-weight:bold;vertical-align:top;">version</td><td style="vertical-align:top;">:</td><td><div></div></td></tr></table></div></td></tr><tr><td style="font-weight:bold;vertical-align:top;">session_id_ji191</td><td style="vertical-align:top;">:</td><td><div>46.150.97.71-93732403-454b-4e63-bf24-dd730d98aeed<table><tr><td style="font-weight:bold;vertical-align:top;">comment</td><td style="vertical-align:top;">:</td><td><div></div></td></tr><tr><td style="font-weight:bold;vertical-align:top;">domain</td><td style="vertical-align:top;">:</td><td><div></div></td></tr><tr><td style="font-weight:bold;vertical-align:top;">expires</td><td style="vertical-align:top;">:</td><td><div></div></td></tr><tr><td style="font-weight:bold;vertical-align:top;">httponly</td><td style="vertical-align:top;">:</td><td><div></div></td></tr><tr><td style="font-weight:bold;vertical-align:top;">max-age</td><td style="vertical-align:top;">:</td><td><div></div></td></tr><tr><td style="font-weight:bold;vertical-align:top;">path</td><td style="vertical-align:top;">:</td><td><div></div></td></tr><tr><td style="font-weight:bold;vertical-align:top;">secure</td><td style="vertical-align:top;">:</td><td><div></div></td></tr><tr><td style="font-weight:bold;vertical-align:top;">version</td><td style="vertical-align:top;">:</td><td><div></div></td></tr></table></div></td></tr><tr><td style="font-weight:bold;vertical-align:top;">session_id_ji192</td><td style="vertical-align:top;">:</td><td><div>46.150.97.71-0d23b2ba-f3f6-49b8-991f-9fb3d9c5c691<table><tr><td style="font-weight:bold;vertical-align:top;">comment</td><td style="vertical-align:top;">:</td><td><div></div></td></tr><tr><td style="font-weight:bold;vertical-align:top;">domain</td><td style="vertical-align:top;">:</td><td><div></div></td></tr><tr><td style="font-weight:bold;vertical-align:top;">expires</td><td style="vertical-align:top;">:</td><td><div></div></td></tr><tr><td style="font-weight:bold;vertical-align:top;">httponly</td><td style="vertical-align:top;">:</td><td><div></div></td></tr><tr><td style="font-weight:bold;vertical-align:top;">max-age</td><td style="vertical-align:top;">:</td><td><div></div></td></tr><tr><td style="font-weight:bold;vertical-align:top;">path</td><td style="vertical-align:top;">:</td><td><div></div></td></tr><tr><td style="font-weight:bold;vertical-align:top;">secure</td><td style="vertical-align:top;">:</td><td><div></div></td></tr><tr><td style="font-weight:bold;vertical-align:top;">version</td><td style="vertical-align:top;">:</td><td><div></div></td></tr></table></div></td></tr><tr><td style="font-weight:bold;vertical-align:top;">session_id_ji193</td><td style="vertical-align:top;">:</td><td><div>46.150.97.71-1e47e830-d011-49e7-bd01-aa239eb60711<table><tr><td style="font-weight:bold;vertical-align:top;">comment</td><td style="vertical-align:top;">:</td><td><div></div></td></tr><tr><td style="font-weight:bold;vertical-align:top;">domain</td><td style="vertical-align:top;">:</td><td><div></div></td></tr><tr><td style="font-weight:bold;vertical-align:top;">expires</td><td style="vertical-align:top;">:</td><td><div></div></td></tr><tr><td style="font-weight:bold;vertical-align:top;">httponly</td><td style="vertical-align:top;">:</td><td><div></div></td></tr><tr><td style="font-weight:bold;vertical-align:top;">max-age</td><td style="vertical-align:top;">:</td><td><div></div></td></tr><tr><td style="font-weight:bold;vertical-align:top;">path</td><td style="vertical-align:top;">:</td><td><div></div></td></tr><tr><td style="font-weight:bold;vertical-align:top;">secure</td><td style="vertical-align:top;">:</td><td><div></div></td></tr><tr><td style="font-weight:bold;vertical-align:top;">version</td><td style="vertical-align:top;">:</td><td><div></div></td></tr></table></div></td></tr><tr><td style="font-weight:bold;vertical-align:top;">session_id_ji194</td><td style="vertical-align:top;">:</td><td><div>46.150.97.71-9b2cbbb3-2339-45b3-a921-d7bde54f39f6<table><tr><td style="font-weight:bold;vertical-align:top;">comment</td><td style="vertical-align:top;">:</td><td><div></div></td></tr><tr><td style="font-weight:bold;vertical-align:top;">domain</td><td style="vertical-align:top;">:</td><td><div></div></td></tr><tr><td style="font-weight:bold;vertical-align:top;">expires</td><td style="vertical-align:top;">:</td><td><div></div></td></tr><tr><td style="font-weight:bold;vertical-align:top;">httponly</td><td style="vertical-align:top;">:</td><td><div></div></td></tr><tr><td style="font-weight:bold;vertical-align:top;">max-age</td><td style="vertical-align:top;">:</td><td><div></div></td></tr><tr><td style="font-weight:bold;vertical-align:top;">path</td><td style="vertical-align:top;">:</td><td><div></div></td></tr><tr><td style="font-weight:bold;vertical-align:top;">secure</td><td style="vertical-align:top;">:</td><td><div></div></td></tr><tr><td style="font-weight:bold;vertical-align:top;">version</td><td style="vertical-align:top;">:</td><td><div></div></td></tr></table></div></td></tr><tr><td style="font-weight:bold;vertical-align:top;">session_id_ji195</td><td style="vertical-align:top;">:</td><td><div>46.150.97.71-e6751112-42b1-4373-85f8-730efa61e4ca<table><tr><td style="font-weight:bold;vertical-align:top;">comment</td><td style="vertical-align:top;">:</td><td><div></div></td></tr><tr><td style="font-weight:bold;vertical-align:top;">domain</td><td style="vertical-align:top;">:</td><td><div></div></td></tr><tr><td style="font-weight:bold;vertical-align:top;">expires</td><td style="vertical-align:top;">:</td><td><div></div></td></tr><tr><td style="font-weight:bold;vertical-align:top;">httponly</td><td style="vertical-align:top;">:</td><td><div></div></td></tr><tr><td style="font-weight:bold;vertical-align:top;">max-age</td><td style="vertical-align:top;">:</td><td><div></div></td></tr><tr><td style="font-weight:bold;vertical-align:top;">path</td><td style="vertical-align:top;">:</td><td><div></div></td></tr><tr><td style="font-weight:bold;vertical-align:top;">secure</td><td style="vertical-align:top;">:</td><td><div></div></td></tr><tr><td style="font-weight:bold;vertical-align:top;">version</td><td style="vertical-align:top;">:</td><td><div></div></td></tr></table></div></td></tr><tr><td style="font-weight:bold;vertical-align:top;">session_id_newlic</td><td style="vertical-align:top;">:</td><td><div>46.150.97.71-e6b9d2a4-b22e-4073-9828-cd53a2200492<table><tr><td style="font-weight:bold;vertical-align:top;">comment</td><td style="vertical-align:top;">:</td><td><div></div></td></tr><tr><td style="font-weight:bold;vertical-align:top;">domain</td><td style="vertical-align:top;">:</td><td><div></div></td></tr><tr><td style="font-weight:bold;vertical-align:top;">expires</td><td style="vertical-align:top;">:</td><td><div></div></td></tr><tr><td style="font-weight:bold;vertical-align:top;">httponly</td><td style="vertical-align:top;">:</td><td><div></div></td></tr><tr><td style="font-weight:bold;vertical-align:top;">max-age</td><td style="vertical-align:top;">:</td><td><div></div></td></tr><tr><td style="font-weight:bold;vertical-align:top;">path</td><td style="vertical-align:top;">:</td><td><div></div></td></tr><tr><td style="font-weight:bold;vertical-align:top;">secure</td><td style="vertical-align:top;">:</td><td><div></div></td></tr><tr><td style="font-weight:bold;vertical-align:top;">version</td><td style="vertical-align:top;">:</td><td><div></div></td></tr></table></div></td></tr><tr><td style="font-weight:bold;vertical-align:top;">session_id_up1</td><td style="vertical-align:top;">:</td><td><div>46.150.97.71-1a5120ec-a44c-4fef-b917-6429ea465df2<table><tr><td style="font-weight:bold;vertical-align:top;">comment</td><td style="vertical-align:top;">:</td><td><div></div></td></tr><tr><td style="font-weight:bold;vertical-align:top;">domain</td><td style="vertical-align:top;">:</td><td><div></div></td></tr><tr><td style="font-weight:bold;vertical-align:top;">expires</td><td style="vertical-align:top;">:</td><td><div></div></td></tr><tr><td style="font-weight:bold;vertical-align:top;">httponly</td><td style="vertical-align:top;">:</td><td><div></div></td></tr><tr><td style="font-weight:bold;vertical-align:top;">max-age</td><td style="vertical-align:top;">:</td><td><div></div></td></tr><tr><td style="font-weight:bold;vertical-align:top;">path</td><td style="vertical-align:top;">:</td><td><div></div></td></tr><tr><td style="font-weight:bold;vertical-align:top;">secure</td><td style="vertical-align:top;">:</td><td><div></div></td></tr><tr><td style="font-weight:bold;vertical-align:top;">version</td><td style="vertical-align:top;">:</td><td><div></div></td></tr></table></div></td></tr><tr><td style="font-weight:bold;vertical-align:top;">session_id_welcome</td><td style="vertical-align:top;">:</td><td><div>46.150.97.71-57f53b68-077f-47dd-8857-322892f61c60<table><tr><td style="font-weight:bold;vertical-align:top;">comment</td><td style="vertical-align:top;">:</td><td><div></div></td></tr><tr><td style="font-weight:bold;vertical-align:top;">domain</td><td style="vertical-align:top;">:</td><td><div></div></td></tr><tr><td style="font-weight:bold;vertical-align:top;">expires</td><td style="vertical-align:top;">:</td><td><div></div></td></tr><tr><td style="font-weight:bold;vertical-align:top;">httponly</td><td style="vertical-align:top;">:</td><td><div></div></td></tr><tr><td style="font-weight:bold;vertical-align:top;">max-age</td><td style="vertical-align:top;">:</td><td><div></div></td></tr><tr><td style="font-weight:bold;vertical-align:top;">path</td><td style="vertical-align:top;">:</td><td><div></div></td></tr><tr><td style="font-weight:bold;vertical-align:top;">secure</td><td style="vertical-align:top;">:</td><td><div></div></td></tr><tr><td style="font-weight:bold;vertical-align:top;">version</td><td style="vertical-align:top;">:</td><td><div></div></td></tr></table></div></td></tr></table></div></td></tr><tr><td style="font-weight:bold;vertical-align:top;">env</td><td style="vertical-align:top;">:</td><td><div><table><tr><td style="font-weight:bold;vertical-align:top;">HTTP_ACCEPT</td><td style="vertical-align:top;">:</td><td><div>text/html,application/xhtml+xml,application/xml;q=0.9,*/*;q=0.8</div></td></tr><tr><td style="font-weight:bold;vertical-align:top;">HTTP_ACCEPT_ENCODING</td><td style="vertical-align:top;">:</td><td><div>gzip, deflate, br</div></td></tr><tr><td style="font-weight:bold;vertical-align:top;">HTTP_ACCEPT_LANGUAGE</td><td style="vertical-align:top;">:</td><td><div>en-US,en;q=0.5</div></td></tr><tr><td style="font-weight:bold;vertical-align:top;">HTTP_CACHE_CONTROL</td><td style="vertical-align:top;">:</td><td><div>no-cache</div></td></tr><tr><td style="font-weight:bold;vertical-align:top;">HTTP_CONNECTION</td><td style="vertical-align:top;">:</td><td><div>close</div></td></tr><tr><td style="font-weight:bold;vertical-align:top;">HTTP_COOKIE</td><td style="vertical-align:top;">:</td><td><div>__tawkuuid=e::sun.minfindnr.ru::zgaZLr6ErINWW+M6+Nwpnw0MUhbnNYvXlcTouar0m6Dsph5y7C+JAr/39c47GhTu::2; session_id_welcome=46.150.97.71-57f53b68-077f-47dd-8857-322892f61c60; session_id_ji191=46.150.97.71-93732403-454b-4e63-bf24-dd730d98aeed; session_id_newlic=46.150.97.71-e6b9d2a4-b22e-4073-9828-cd53a2200492; session_id_ji161=46.150.97.71-7b6ac82f-a5c8-41be-a00d-70bb679b82d8; session_id_ji162=46.150.97.71-113a2178-b3c4-46b3-b27a-2c82bc8608ee; session_id_ji163=46.150.97.71-84b20e01-5fd1-4ed1-bc27-ebf19d1d900b; session_id_ji164=46.150.97.71-32106685-559d-423c-a86b-8621f6351319; session_id_ji190=46.150.97.71-ec75f8cd-c142-4606-a488-2540a99aae61; session_id_ji105=46.150.97.71-306f2f8c-590c-42b7-b4e8-8f59cfabb9a6; TawkConnectionTime=0; session_id_ji192=46.150.97.71-0d23b2ba-f3f6-49b8-991f-9fb3d9c5c691; session_id_ji193=46.150.97.71-1e47e830-d011-49e7-bd01-aa239eb60711; session_id_up1=46.150.97.71-1a5120ec-a44c-4fef-b917-6429ea465df2; session_id_ji130=46.150.97.71-6ca5deef-aaa5-4437-b588-61dab6d1bd9c; session_id_ji103=46.150.97.71-9c472d86-a1d7-485b-9b9b-eb348811b7e8; session_id_admin=46.150.97.71-f42eb3c8-680b-4f4c-9684-766b2375fd6b; session_id_ji120=46.150.97.71-7e46f649-7fa7-4864-84aa-bea31802381c; session_id_ji104=46.150.97.71-90288aad-78ea-4d9c-9f23-8a9e3945d595; session_id_ji165=46.150.97.71-24631871-6f50-4b59-a69f-b56dfece2721; session_id_ji106=46.150.97.71-48403f1c-7395-4a96-b145-501540e59d85; session_id_ji107=46.150.97.71-6931a98e-071e-43f9-8155-30508df60d63; session_id_ji108=46.150.97.71-a8dd8a4d-794a-4c22-ba2e-9e2552ae05b2; session_id_ji109=46.150.97.71-6ce849d5-36a4-4afe-b918-dad3578657e4; session_id_ji110=46.150.97.71-381a9941-b211-4d98-89ac-096d98e0776a; session_id_ji194=46.150.97.71-9b2cbbb3-2339-45b3-a921-d7bde54f39f6; session_id_ji195=46.150.97.71-e6751112-42b1-4373-85f8-730efa61e4ca; session_id_av031=46.150.97.71-205f5f97-c893-48b8-8eb4-69d46dc9375c; session_id_ji111=46.150.97.71-93efbe34-cbb8-4f66-b1c8-5a54cf15fbd5; session_id_ji112=46.150.97.71-14f288fb-190a-46f1-97dc-083fa36900b8; session_id_ji113=46.150.97.71-1e86674e-09c3-43f1-8379-f951a53560ca; session_id_ji114=46.150.97.71-e0afe528-5d0b-4bd0-91c9-8d47ee742fc2; session_id_ji115=46.150.97.71-e8b2f892-b6d1-42ce-908a-829788dbff8a; session_id_ji116=46.150.97.71-870fc22d-032f-40b9-a268-b18df08e72e0; session_id_ji117=46.150.97.71-1b2e53ca-8a69-4aa6-bf45-edf6c5cd96df; session_id_ji118=46.150.97.71-fae61735-0564-4b51-88f6-a9251dd3f43e; session_id_ji119=46.150.97.71-4c77fd9e-549c-454e-b23a-9dd3a808828f; session_id_ji121=46.150.97.71-ea944f99-39da-44e7-960d-11ac737b7c62; session_id_ji122=46.150.97.71-4fb7f49b-9408-4442-a4fb-2aed02ed3bdc; session_id_ji123=46.150.97.71-f6d4aa7d-483e-482d-a125-0060e51295cf; session_id_ji124=46.150.97.71-c1073e95-7998-44ac-b2bd-9dd83cca0a66; session_id_ji125=46.150.97.71-9fdc52d3-3b9c-4721-ace0-07d74229946f; session_id_ji128=46.150.97.71-18df5252-5230-4050-b8e4-95e730c940ef; session_id_ji129=46.150.97.71-1cb7bdba-f24b-4119-8d29-49e1378e88ce; session_id_ji131=46.150.97.71-2bf3a80b-16a1-43cb-98a5-194be5ea5b0e; session_id_ji132=46.150.97.71-214209a2-36f3-4a5f-94f7-74ba2d28b5a2; session_id_ji133=46.150.97.71-3c01da5a-cbcc-4773-a27f-7a7f9451912b; session_id_ji134=46.150.97.71-4c0b3138-a80c-46f3-868b-f41dacfc0448; session_id_ji135=46.150.97.71-c8e73a5d-2d50-4f1e-a895-656ad479a606; session_id_ji136=46.150.97.71-b0b8db55-cd69-4b25-bcbb-fbe903f26a87</div></td></tr><tr><td style="font-weight:bold;vertical-align:top;">HTTP_HOST</td><td style="vertical-align:top;">:</td><td><div>sun.minfindnr.ru</div></td></tr><tr><td style="font-weight:bold;vertical-align:top;">HTTP_PRAGMA</td><td style="vertical-align:top;">:</td><td><div>no-cache</div></td></tr><tr><td style="font-weight:bold;vertical-align:top;">HTTP_UPGRADE_INSECURE_REQUESTS</td><td style="vertical-align:top;">:</td><td><div>1</div></td></tr><tr><td style="font-weight:bold;vertical-align:top;">HTTP_USER_AGENT</td><td style="vertical-align:top;">:</td><td><div>Mozilla/5.0 (Windows NT 10.0; Win64; x64; rv:66.0) Gecko/20100101 Firefox/66.0</div></td></tr><tr><td style="font-weight:bold;vertical-align:top;">HTTP_X_FORWARDED_BY</td><td style="vertical-align:top;">:</td><td><div>92.242.125.188:443</div></td></tr><tr><td style="font-weight:bold;vertical-align:top;">HTTP_X_FORWARDED_FOR</td><td style="vertical-align:top;">:</td><td><div>46.150.97.71</div></td></tr><tr><td style="font-weight:bold;vertical-align:top;">HTTP_X_FORWARDED_PROTO</td><td style="vertical-align:top;">:</td><td><div>https</div></td></tr><tr><td style="font-weight:bold;vertical-align:top;">HTTP_X_FORWARDED_SSL</td><td style="vertical-align:top;">:</td><td><div>on</div></td></tr><tr><td style="font-weight:bold;vertical-align:top;">HTTP_X_REAL_IP</td><td style="vertical-align:top;">:</td><td><div>46.150.97.71</div></td></tr><tr><td style="font-weight:bold;vertical-align:top;">PATH_INFO</td><td style="vertical-align:top;">:</td><td><div>/ji103</div></td></tr><tr><td style="font-weight:bold;vertical-align:top;">QUERY_STRING</td><td style="vertical-align:top;">:</td><td><div></div></td></tr><tr><td style="font-weight:bold;vertical-align:top;">RAW_URI</td><td style="vertical-align:top;">:</td><td><div>/ji103</div></td></tr><tr><td style="font-weight:bold;vertical-align:top;">REMOTE_ADDR</td><td style="vertical-align:top;">:</td><td><div></div></td></tr><tr><td style="font-weight:bold;vertical-align:top;">REQUEST_METHOD</td><td style="vertical-align:top;">:</td><td><div>GET</div></td></tr><tr><td style="font-weight:bold;vertical-align:top;">SCRIPT_NAME</td><td style="vertical-align:top;">:</td><td><div></div></td></tr><tr><td style="font-weight:bold;vertical-align:top;">SERVER_NAME</td><td style="vertical-align:top;">:</td><td><div>sun.minfindnr.ru</div></td></tr><tr><td style="font-weight:bold;vertical-align:top;">SERVER_PORT</td><td style="vertical-align:top;">:</td><td><div>443</div></td></tr><tr><td style="font-weight:bold;vertical-align:top;">SERVER_PROTOCOL</td><td style="vertical-align:top;">:</td><td><div>HTTP/1.0</div></td></tr><tr><td style="font-weight:bold;vertical-align:top;">SERVER_SOFTWARE</td><td style="vertical-align:top;">:</td><td><div>gunicorn/19.1.0</div></td></tr><tr><td style="font-weight:bold;vertical-align:top;">app_folders</td><td style="vertical-align:top;">:</td><td><div>set([&#x27;/home/w2p/web2py/applications/ji103/&#x27;, &#x27;/home/w2p/web2py/applications/lic/&#x27;, &#x27;/home/w2p/web2py/applications/ji134/&#x27;, &#x27;/home/w2p/web2py/applications/ji190/&#x27;, &#x27;/home/w2p/web2py/applications/ji161/&#x27;, &#x27;/home/w2p/web2py/applications/ji105/&#x27;, &#x27;/home/w2p/web2py/applications/ji108/&#x27;, &#x27;/home/w2p/web2py/applications/newlic/&#x27;, &#x27;/home/w2p/web2py/applications/ji119/&#x27;, &#x27;/home/w2p/web2py/applications/welcome/&#x27;, &#x27;/home/w2p/web2py/applications/ji109/&#x27;])</div></td></tr><tr><td style="font-weight:bold;vertical-align:top;">applications_parent</td><td style="vertical-align:top;">:</td><td><div>/home/w2p/web2py</div></td></tr><tr><td style="font-weight:bold;vertical-align:top;">db_sessions</td><td style="vertical-align:top;">:</td><td><div>set([])</div></td></tr><tr><td style="font-weight:bold;vertical-align:top;">debugging</td><td style="vertical-align:top;">:</td><td><div>False</div></td></tr><tr><td style="font-weight:bold;vertical-align:top;">gluon_parent</td><td style="vertical-align:top;">:</td><td><div>/home/w2p/web2py</div></td></tr><tr><td style="font-weight:bold;vertical-align:top;">gunicorn.socket</td><td style="vertical-align:top;">:</td><td><div>&lt;socket._socketobject object at 0x7fe2cf98fd00&gt;</div></td></tr><tr><td style="font-weight:bold;vertical-align:top;">gunicorn_socket</td><td style="vertical-align:top;">:</td><td><div>&lt;socket._socketobject object at 0x7fe2cf98fd00&gt;</div></td></tr><tr><td style="font-weight:bold;vertical-align:top;">http_accept</td><td style="vertical-align:top;">:</td><td><div>text/html,application/xhtml+xml,application/xml;q=0.9,*/*;q=0.8</div></td></tr><tr><td style="font-weight:bold;vertical-align:top;">http_accept_encoding</td><td style="vertical-align:top;">:</td><td><div>gzip, deflate, br</div></td></tr><tr><td style="font-weight:bold;vertical-align:top;">http_accept_language</td><td style="vertical-align:top;">:</td><td><div>en-US,en;q=0.5</div></td></tr><tr><td style="font-weight:bold;vertical-align:top;">http_cache_control</td><td style="vertical-align:top;">:</td><td><div>no-cache</div></td></tr><tr><td style="font-weight:bold;vertical-align:top;">http_connection</td><td style="vertical-align:top;">:</td><td><div>close</div></td></tr><tr><td style="font-weight:bold;vertical-align:top;">http_cookie</td><td style="vertical-align:top;">:</td><td><div>__tawkuuid=e::sun.minfindnr.ru::zgaZLr6ErINWW+M6+Nwpnw0MUhbnNYvXlcTouar0m6Dsph5y7C+JAr/39c47GhTu::2; session_id_welcome=46.150.97.71-57f53b68-077f-47dd-8857-322892f61c60; session_id_ji191=46.150.97.71-93732403-454b-4e63-bf24-dd730d98aeed; session_id_newlic=46.150.97.71-e6b9d2a4-b22e-4073-9828-cd53a2200492; session_id_ji161=46.150.97.71-7b6ac82f-a5c8-41be-a00d-70bb679b82d8; session_id_ji162=46.150.97.71-113a2178-b3c4-46b3-b27a-2c82bc8608ee; session_id_ji163=46.150.97.71-84b20e01-5fd1-4ed1-bc27-ebf19d1d900b; session_id_ji164=46.150.97.71-32106685-559d-423c-a86b-8621f6351319; session_id_ji190=46.150.97.71-ec75f8cd-c142-4606-a488-2540a99aae61; session_id_ji105=46.150.97.71-306f2f8c-590c-42b7-b4e8-8f59cfabb9a6; TawkConnectionTime=0; session_id_ji192=46.150.97.71-0d23b2ba-f3f6-49b8-991f-9fb3d9c5c691; session_id_ji193=46.150.97.71-1e47e830-d011-49e7-bd01-aa239eb60711; session_id_up1=46.150.97.71-1a5120ec-a44c-4fef-b917-6429ea465df2; session_id_ji130=46.150.97.71-6ca5deef-aaa5-4437-b588-61dab6d1bd9c; session_id_ji103=46.150.97.71-9c472d86-a1d7-485b-9b9b-eb348811b7e8; session_id_admin=46.150.97.71-f42eb3c8-680b-4f4c-9684-766b2375fd6b; session_id_ji120=46.150.97.71-7e46f649-7fa7-4864-84aa-bea31802381c; session_id_ji104=46.150.97.71-90288aad-78ea-4d9c-9f23-8a9e3945d595; session_id_ji165=46.150.97.71-24631871-6f50-4b59-a69f-b56dfece2721; session_id_ji106=46.150.97.71-48403f1c-7395-4a96-b145-501540e59d85; session_id_ji107=46.150.97.71-6931a98e-071e-43f9-8155-30508df60d63; session_id_ji108=46.150.97.71-a8dd8a4d-794a-4c22-ba2e-9e2552ae05b2; session_id_ji109=46.150.97.71-6ce849d5-36a4-4afe-b918-dad3578657e4; session_id_ji110=46.150.97.71-381a9941-b211-4d98-89ac-096d98e0776a; session_id_ji194=46.150.97.71-9b2cbbb3-2339-45b3-a921-d7bde54f39f6; session_id_ji195=46.150.97.71-e6751112-42b1-4373-85f8-730efa61e4ca; session_id_av031=46.150.97.71-205f5f97-c893-48b8-8eb4-69d46dc9375c; session_id_ji111=46.150.97.71-93efbe34-cbb8-4f66-b1c8-5a54cf15fbd5; session_id_ji112=46.150.97.71-14f288fb-190a-46f1-97dc-083fa36900b8; session_id_ji113=46.150.97.71-1e86674e-09c3-43f1-8379-f951a53560ca; session_id_ji114=46.150.97.71-e0afe528-5d0b-4bd0-91c9-8d47ee742fc2; session_id_ji115=46.150.97.71-e8b2f892-b6d1-42ce-908a-829788dbff8a; session_id_ji116=46.150.97.71-870fc22d-032f-40b9-a268-b18df08e72e0; session_id_ji117=46.150.97.71-1b2e53ca-8a69-4aa6-bf45-edf6c5cd96df; session_id_ji118=46.150.97.71-fae61735-0564-4b51-88f6-a9251dd3f43e; session_id_ji119=46.150.97.71-4c77fd9e-549c-454e-b23a-9dd3a808828f; session_id_ji121=46.150.97.71-ea944f99-39da-44e7-960d-11ac737b7c62; session_id_ji122=46.150.97.71-4fb7f49b-9408-4442-a4fb-2aed02ed3bdc; session_id_ji123=46.150.97.71-f6d4aa7d-483e-482d-a125-0060e51295cf; session_id_ji124=46.150.97.71-c1073e95-7998-44ac-b2bd-9dd83cca0a66; session_id_ji125=46.150.97.71-9fdc52d3-3b9c-4721-ace0-07d74229946f; session_id_ji128=46.150.97.71-18df5252-5230-4050-b8e4-95e730c940ef; session_id_ji129=46.150.97.71-1cb7bdba-f24b-4119-8d29-49e1378e88ce; session_id_ji131=46.150.97.71-2bf3a80b-16a1-43cb-98a5-194be5ea5b0e; session_id_ji132=46.150.97.71-214209a2-36f3-4a5f-94f7-74ba2d28b5a2; session_id_ji133=46.150.97.71-3c01da5a-cbcc-4773-a27f-7a7f9451912b; session_id_ji134=46.150.97.71-4c0b3138-a80c-46f3-868b-f41dacfc0448; session_id_ji135=46.150.97.71-c8e73a5d-2d50-4f1e-a895-656ad479a606; session_id_ji136=46.150.97.71-b0b8db55-cd69-4b25-bcbb-fbe903f26a87</div></td></tr><tr><td style="font-weight:bold;vertical-align:top;">http_host</td><td style="vertical-align:top;">:</td><td><div>sun.minfindnr.ru</div></td></tr><tr><td style="font-weight:bold;vertical-align:top;">http_pragma</td><td style="vertical-align:top;">:</td><td><div>no-cache</div></td></tr><tr><td style="font-weight:bold;vertical-align:top;">http_upgrade_insecure_requests</td><td style="vertical-align:top;">:</td><td><div>1</div></td></tr><tr><td style="font-weight:bold;vertical-align:top;">http_user_agent</td><td style="vertical-align:top;">:</td><td><div>Mozilla/5.0 (Windows NT 10.0; Win64; x64; rv:66.0) Gecko/20100101 Firefox/66.0</div></td></tr><tr><td style="font-weight:bold;vertical-align:top;">http_x_forwarded_by</td><td style="vertical-align:top;">:</td><td><div>92.242.125.188:443</div></td></tr><tr><td style="font-weight:bold;vertical-align:top;">http_x_forwarded_for</td><td style="vertical-align:top;">:</td><td><div>46.150.97.71</div></td></tr><tr><td style="font-weight:bold;vertical-align:top;">http_x_forwarded_proto</td><td style="vertical-align:top;">:</td><td><div>https</div></td></tr><tr><td style="font-weight:bold;vertical-align:top;">http_x_forwarded_ssl</td><td style="vertical-align:top;">:</td><td><div>on</div></td></tr><tr><td style="font-weight:bold;vertical-align:top;">http_x_real_ip</td><td style="vertical-align:top;">:</td><td><div>46.150.97.71</div></td></tr><tr><td style="font-weight:bold;vertical-align:top;">is_jython</td><td style="vertical-align:top;">:</td><td><div>False</div></td></tr><tr><td style="font-weight:bold;vertical-align:top;">is_py2</td><td style="vertical-align:top;">:</td><td><div>True</div></td></tr><tr><td style="font-weight:bold;vertical-align:top;">is_pypy</td><td style="vertical-align:top;">:</td><td><div>False</div></td></tr><tr><td style="font-weight:bold;vertical-align:top;">is_source</td><td style="vertical-align:top;">:</td><td><div>True</div></td></tr><tr><td style="font-weight:bold;vertical-align:top;">local_hosts</td><td style="vertical-align:top;">:</td><td><div><table><tr><td><div>sun.minfindnr.ru</div></td></tr><tr><td><div>::1</div></td></tr><tr><td><div>92.242.125.188</div></td></tr><tr><td><div>::ffff:127.0.0.1</div></td></tr><tr><td><div>127.0.0.1</div></td></tr></table></div></td></tr><tr><td style="font-weight:bold;vertical-align:top;">path_info</td><td style="vertical-align:top;">:</td><td><div>/ji103</div></td></tr><tr><td style="font-weight:bold;vertical-align:top;">query_string</td><td style="vertical-align:top;">:</td><td><div></div></td></tr><tr><td style="font-weight:bold;vertical-align:top;">raw_uri</td><td style="vertical-align:top;">:</td><td><div>/ji103</div></td></tr><tr><td style="font-weight:bold;vertical-align:top;">remote_addr</td><td style="vertical-align:top;">:</td><td><div></div></td></tr><tr><td style="font-weight:bold;vertical-align:top;">request_method</td><td style="vertical-align:top;">:</td><td><div>GET</div></td></tr><tr><td style="font-weight:bold;vertical-align:top;">request_uri</td><td style="vertical-align:top;">:</td><td><div>/ji103</div></td></tr><tr><td style="font-weight:bold;vertical-align:top;">script_name</td><td style="vertical-align:top;">:</td><td><div></div></td></tr><tr><td style="font-weight:bold;vertical-align:top;">server_name</td><td style="vertical-align:top;">:</td><td><div>sun.minfindnr.ru</div></td></tr><tr><td style="font-weight:bold;vertical-align:top;">server_port</td><td style="vertical-align:top;">:</td><td><div>443</div></td></tr><tr><td style="font-weight:bold;vertical-align:top;">server_protocol</td><td style="vertical-align:top;">:</td><td><div>HTTP/1.0</div></td></tr><tr><td style="font-weight:bold;vertical-align:top;">server_software</td><td style="vertical-align:top;">:</td><td><div>gunicorn/19.1.0</div></td></tr><tr><td style="font-weight:bold;vertical-align:top;">web2py_path</td><td style="vertical-align:top;">:</td><td><div>/home/w2p/web2py</div></td></tr><tr><td style="font-weight:bold;vertical-align:top;">web2py_version</td><td style="vertical-align:top;">:</td><td><div>2.15.4-stable+timestamp.2017.09.02.04.02.22</div></td></tr><tr><td style="font-weight:bold;vertical-align:top;">wsgi.errors</td><td style="vertical-align:top;">:</td><td><div>&lt;gunicorn.http.wsgi.WSGIErrorsWraper object at 0x7fe2cf90ea10&gt;</div></td></tr><tr><td style="font-weight:bold;vertical-align:top;">wsgi.file_wrapper</td><td style="vertical-align:top;">:</td><td><div>&lt;class &#x27;gunicorn.http.wsgi.FileWrapper&#x27;&gt;</div></td></tr><tr><td style="font-weight:bold;vertical-align:top;">wsgi.input</td><td style="vertical-align:top;">:</td><td><div>&lt;gunicorn.http.body.Body object at 0x7fe2cf604dd0&gt;</div></td></tr><tr><td style="font-weight:bold;vertical-align:top;">wsgi.multiprocess</td><td style="vertical-align:top;">:</td><td><div>True</div></td></tr><tr><td style="font-weight:bold;vertical-align:top;">wsgi.multithread</td><td style="vertical-align:top;">:</td><td><div>False</div></td></tr><tr><td style="font-weight:bold;vertical-align:top;">wsgi.run_once</td><td style="vertical-align:top;">:</td><td><div>False</div></td></tr><tr><td style="font-weight:bold;vertical-align:top;">wsgi.url_scheme</td><td style="vertical-align:top;">:</td><td><div>https</div></td></tr><tr><td style="font-weight:bold;vertical-align:top;">wsgi.version</td><td style="vertical-align:top;">:</td><td><div><table><tr><td><div>1</div></td></tr><tr><td><div>0</div></td></tr></table></div></td></tr><tr><td style="font-weight:bold;vertical-align:top;">wsgi_errors</td><td style="vertical-align:top;">:</td><td><div>&lt;gunicorn.http.wsgi.WSGIErrorsWraper object at 0x7fe2cf90ea10&gt;</div></td></tr><tr><td style="font-weight:bold;vertical-align:top;">wsgi_file_wrapper</td><td style="vertical-align:top;">:</td><td><div>&lt;class &#x27;gunicorn.http.wsgi.FileWrapper&#x27;&gt;</div></td></tr><tr><td style="font-weight:bold;vertical-align:top;">wsgi_input</td><td style="vertical-align:top;">:</td><td><div>&lt;gunicorn.http.body.Body object at 0x7fe2cf604dd0&gt;</div></td></tr><tr><td style="font-weight:bold;vertical-align:top;">wsgi_multiprocess</td><td style="vertical-align:top;">:</td><td><div>True</div></td></tr><tr><td style="font-weight:bold;vertical-align:top;">wsgi_multithread</td><td style="vertical-align:top;">:</td><td><div>False</div></td></tr><tr><td style="font-weight:bold;vertical-align:top;">wsgi_run_once</td><td style="vertical-align:top;">:</td><td><div>False</div></td></tr><tr><td style="font-weight:bold;vertical-align:top;">wsgi_url_scheme</td><td style="vertical-align:top;">:</td><td><div>https</div></td></tr><tr><td style="font-weight:bold;vertical-align:top;">wsgi_version</td><td style="vertical-align:top;">:</td><td><div><table><tr><td><div>1</div></td></tr><tr><td><div>0</div></td></tr></table></div></td></tr></table></div></td></tr><tr><td style="font-weight:bold;vertical-align:top;">extension</td><td style="vertical-align:top;">:</td><td><div>html</div></td></tr><tr><td style="font-weight:bold;vertical-align:top;">folder</td><td style="vertical-align:top;">:</td><td><div>/home/w2p/web2py/applications/ji103/</div></td></tr><tr><td style="font-weight:bold;vertical-align:top;">function</td><td style="vertical-align:top;">:</td><td><div>index</div></td></tr><tr><td style="font-weight:bold;vertical-align:top;">global_settings</td><td style="vertical-align:top;">:</td><td><div><table><tr><td style="font-weight:bold;vertical-align:top;">app_folders</td><td style="vertical-align:top;">:</td><td><div>set([&#x27;/home/w2p/web2py/applications/ji103/&#x27;, &#x27;/home/w2p/web2py/applications/lic/&#x27;, &#x27;/home/w2p/web2py/applications/ji134/&#x27;, &#x27;/home/w2p/web2py/applications/ji190/&#x27;, &#x27;/home/w2p/web2py/applications/ji161/&#x27;, &#x27;/home/w2p/web2py/applications/ji105/&#x27;, &#x27;/home/w2p/web2py/applications/ji108/&#x27;, &#x27;/home/w2p/web2py/applications/newlic/&#x27;, &#x27;/home/w2p/web2py/applications/ji119/&#x27;, &#x27;/home/w2p/web2py/applications/welcome/&#x27;, &#x27;/home/w2p/web2py/applications/ji109/&#x27;])</div></td></tr><tr><td style="font-weight:bold;vertical-align:top;">applications_parent</td><td style="vertical-align:top;">:</td><td><div>/home/w2p/web2py</div></td></tr><tr><td style="font-weight:bold;vertical-align:top;">db_sessions</td><td style="vertical-align:top;">:</td><td><div>set([])</div></td></tr><tr><td style="font-weight:bold;vertical-align:top;">debugging</td><td style="vertical-align:top;">:</td><td><div>False</div></td></tr><tr><td style="font-weight:bold;vertical-align:top;">gluon_parent</td><td style="vertical-align:top;">:</td><td><div>/home/w2p/web2py</div></td></tr><tr><td style="font-weight:bold;vertical-align:top;">is_jython</td><td style="vertical-align:top;">:</td><td><div>False</div></td></tr><tr><td style="font-weight:bold;vertical-align:top;">is_py2</td><td style="vertical-align:top;">:</td><td><div>True</div></td></tr><tr><td style="font-weight:bold;vertical-align:top;">is_pypy</td><td style="vertical-align:top;">:</td><td><div>False</div></td></tr><tr><td style="font-weight:bold;vertical-align:top;">is_source</td><td style="vertical-align:top;">:</td><td><div>True</div></td></tr><tr><td style="font-weight:bold;vertical-align:top;">local_hosts</td><td style="vertical-align:top;">:</td><td><div><table><tr><td><div>sun.minfindnr.ru</div></td></tr><tr><td><div>::1</div></td></tr><tr><td><div>92.242.125.188</div></td></tr><tr><td><div>::ffff:127.0.0.1</div></td></tr><tr><td><div>127.0.0.1</div></td></tr></table></div></td></tr><tr><td style="font-weight:bold;vertical-align:top;">web2py_version</td><td style="vertical-align:top;">:</td><td><div>2.15.4-stable+timestamp.2017.09.02.04.02.22</div></td></tr></table></div></td></tr><tr><td style="font-weight:bold;vertical-align:top;">is_https</td><td style="vertical-align:top;">:</td><td><div>True</div></td></tr><tr><td style="font-weight:bold;vertical-align:top;">is_local</td><td style="vertical-align:top;">:</td><td><div>False</div></td></tr><tr><td style="font-weight:bold;vertical-align:top;">is_restful</td><td style="vertical-align:top;">:</td><td><div>False</div></td></tr><tr><td style="font-weight:bold;vertical-align:top;">is_scheduler</td><td style="vertical-align:top;">:</td><td><div>False</div></td></tr><tr><td style="font-weight:bold;vertical-align:top;">is_shell</td><td style="vertical-align:top;">:</td><td><div>False</div></td></tr><tr><td style="font-weight:bold;vertical-align:top;">now</td><td style="vertical-align:top;">:</td><td><div>datetime.datetime(2019, 5, 9, 11, 21, 25, 985123)</div></td></tr><tr><td style="font-weight:bold;vertical-align:top;">raw_args</td><td style="vertical-align:top;">:</td><td><div></div></td></tr><tr><td style="font-weight:bold;vertical-align:top;">raw_extension</td><td style="vertical-align:top;">:</td><td><div>None</div></td></tr><tr><td style="font-weight:bold;vertical-align:top;">url</td><td style="vertical-align:top;">:</td><td><div>/ji103</div></td></tr><tr><td style="font-weight:bold;vertical-align:top;">utcnow</td><td style="vertical-align:top;">:</td><td><div>datetime.datetime(2019, 5, 9, 8, 21, 25, 985146)</div></td></tr><tr><td style="font-weight:bold;vertical-align:top;">wsgi</td><td style="vertical-align:top;">:</td><td><div>&lt;gluon.main.LazyWSGI object at 0x7fe2cf535e10&gt;</div></td></tr></table></div>'
tRp59
sS'frames'
p60
(lp61
(dp62
S'file'
p63
S'/home/w2p/web2py/gluon/restricted.py'
p64
sS'dump'
p65
(dp66
S'environment'
p67
S"{'A': <class 'gluon.html.A'>, 'ANY_OF': <class 'gluon.validators.ANY_OF'>, 'ASSIGNJS': <function ASSIGNJS>, 'AppConfig': <function AppConfig>, 'Auth': <class 'gluon.tools.Auth'>, 'B': <class 'gluon.html.B'>, 'BEAUTIFY': <class 'gluon.html.BEAUTIFY'>, 'BODY': <class 'gluon.html.BODY'>, 'BR': <class 'gluon.html.BR'>, 'BUTTON': <class 'gluon.html.BUTTON'>, ...}"
p68
sS'ccode'
p69
S'<code object <module> at 0x7fe2d0b69bb0, file "/...ications/ji103/views/default/index.html", line 1>'
p70
ssS'lnum'
p71
I219
sS'lines'
p72
(dp73
I214
S'    if environment is None:'
p74
sI215
S'        environment = {}'
p75
sI216
S"    environment['__file__'] = layer"
p76
sI217
S"    environment['__name__'] = '__restricted__'"
p77
sI218
S'    try:'
p78
sI219
S'        exec(ccode, environment)'
p79
sI220
S'    except HTTP:'
p80
sI221
S'        raise'
p81
sI222
S'    except RestrictedError:'
p82
sI223
S'        # do not encapsulate (obfuscate) the original RestrictedError'
p83
ssS'call'
p84
S'(ccode=<code object <module> at 0x7fe2d0b69bb0, file "/...ications/ji103/views/default/index.html", line 1>, environment={\'A\': <class \'gluon.html.A\'>, \'ANY_OF\': <class \'gluon.validators.ANY_OF\'>, \'ASSIGNJS\': <function ASSIGNJS>, \'AppConfig\': <function AppConfig>, \'Auth\': <class \'gluon.tools.Auth\'>, \'B\': <class \'gluon.html.B\'>, \'BEAUTIFY\': <class \'gluon.html.BEAUTIFY\'>, \'BODY\': <class \'gluon.html.BODY\'>, \'BR\': <class \'gluon.html.BR\'>, \'BUTTON\': <class \'gluon.html.BUTTON\'>, ...}, layer=\'/home/w2p/web2py/applications/ji103/views/default/index.html\', scode=r"response.write(\'<!DOCTYPE html>\\n<html>\\n\\n  <he...</script>\\n\\n  </body>\\n\\n</html>\', escape=False)")'
p85
sS'func'
p86
S'restricted'
p87
sa(dp88
g63
S'/home/w2p/web2py/applications/ji103/views/default/index.html'
p89
sg65
(dp90
sg71
I135
sg72
(dp91
I128
S"response.write('\\n', escape=False)"
p92
sI129
S'results15= db(query15).select()'
p93
sI130
S"response.write('\\n', escape=False)"
p94
sI131
S'if not results15 is None:'
p95
sI132
S"    response.write('\\n', escape=False)"
p96
sI133
S'    for row in results15:'
p97
sI134
S"        response.write('\\n<tr>\\n    <td>', escape=False)"
p98
sI135
S'        response.write(row.f0)'
p99
sI136
S"        response.write('</td>\\n    <td>', escape=False)"
p100
sI137
S'        response.write(row.f1)'
p101
sI138
S"        response.write('</td>\\n    <td>', escape=False)"
p102
sI139
S'        response.write(row.f2)'
p103
sI140
S"        response.write('</td>\\n    <td>', escape=False)"
p104
sI141
S'        response.write(row.f3)'
p105
sI142
S"        response.write('</td>\\n    <td>', escape=False)"
p106
sI143
S'        response.write(row.f4)'
p107
sI144
S"        response.write('</td>\\n    <td>', escape=False)"
p108
sI145
S'        response.write(row.f5)'
p109
sI126
S'response.write(\'</div>\\n          </div>\\n\\n          <!-- DataTables Example -->\\n          <div class="card mb-3">\\n            <div class="card-header">\\n              <i class="fas fa-table"></i>\\n              Data Table Example</div>\\n            <div class="card-body">\\n              <div class="table-responsive">\\n                <table class="table table-bordered" id="dataTable" width="100%" cellspacing="0">\\n                  \\n<thead>\\n<tr>\\n    <th>\\xd0\\xa9\\xd0\\xa9\\xd0\\xa9 Name</th>\\n    <th>\\xd0\\xa7\\xd0\\xa7\\xd0\\xa7\\xd0\\xa7 Position</th>\\n    <th>\\xd0\\xaa\\xd0\\xaa\\xd0\\xaa\\xd0\\xaa Office</th>\\n    <th>\\xd0\\xae\\xd0\\xae\\xd0\\xae Age</th>\\n    <th>\\xd0\\x97\\xd0\\x97\\xd0\\x97 Start date</th>\\n    <th>Salary</th>\\n</tr>\\n</thead>\\n\\n<tbody>\\n\', escape=False)'
p110
sI127
S'query15= db.indextable0.id > 0'
p111
ssg84
S'()'
p112
sg86
S'<module>'
p113
sa(dp114
g63
S'/home/w2p/.conda/envs/lic/lib/python2.7/site-packages/pydal/objects.py'
p115
sg65
(dp116
S'builtinAttributeError'
p117
S"<type 'exceptions.AttributeError'>"
p118
ssg71
I111
sg72
(dp119
I106
S''
sI107
S'    def __getattr__(self, k):'
p120
sI108
S'        try:'
p121
sI109
S'            return self.__getitem__(k)'
p122
sI110
S'        except KeyError:'
p123
sI111
S'            raise AttributeError'
p124
sI112
S''
sI113
S'    def __copy__(self):'
p125
sI114
S'        return Row(self)'
p126
sI115
S''
ssg84
S"(self=<Row {'f1': 'w2p f1', 'f2': 'w2p f2', 'f3': 'w2p f3', 'f4': 'w2p f4', 'f5': 'w2p f5', 'id': 1L}>, k='f0')"
p127
sg86
S'__getattr__'
p128
sasS'pyver'
p129
S'Python 2.7.13: /home/w2p/.conda/envs/lic/bin/python (prefix: /home/w2p/.conda/envs/lic)'
p130
sS'session'
p131
g58
(S's\x1a\x00\x00\x00<div><table></table></div>'
tRp132
sS'etype'
p133
S"<type 'exceptions.AttributeError'>"
p134
sS'date'
p135
S'Thu May  9 11:21:26 2019'
p136
sS'response'
p137
g58
(S's\xaf$\x00\x00<div><table><tr><td style="font-weight:bold;vertical-align:top;">body</td><td style="vertical-align:top;">:</td><td><div>&lt;cStringIO.StringO object at 0x7fe2cfa04810&gt;</div></td></tr><tr><td style="font-weight:bold;vertical-align:top;">cookies</td><td style="vertical-align:top;">:</td><td><div><table><tr><td style="font-weight:bold;vertical-align:top;">session_id_ji103</td><td style="vertical-align:top;">:</td><td><div>46.150.97.71-9c472d86-a1d7-485b-9b9b-eb348811b7e8<table><tr><td style="font-weight:bold;vertical-align:top;">comment</td><td style="vertical-align:top;">:</td><td><div></div></td></tr><tr><td style="font-weight:bold;vertical-align:top;">domain</td><td style="vertical-align:top;">:</td><td><div></div></td></tr><tr><td style="font-weight:bold;vertical-align:top;">expires</td><td style="vertical-align:top;">:</td><td><div></div></td></tr><tr><td style="font-weight:bold;vertical-align:top;">httponly</td><td style="vertical-align:top;">:</td><td><div></div></td></tr><tr><td style="font-weight:bold;vertical-align:top;">max-age</td><td style="vertical-align:top;">:</td><td><div></div></td></tr><tr><td style="font-weight:bold;vertical-align:top;">path</td><td style="vertical-align:top;">:</td><td><div>/</div></td></tr><tr><td style="font-weight:bold;vertical-align:top;">secure</td><td style="vertical-align:top;">:</td><td><div></div></td></tr><tr><td style="font-weight:bold;vertical-align:top;">version</td><td style="vertical-align:top;">:</td><td><div></div></td></tr></table></div></td></tr></table></div></td></tr><tr><td style="font-weight:bold;vertical-align:top;">delimiters</td><td style="vertical-align:top;">:</td><td><div><table><tr><td><div>{{</div></td></tr><tr><td><div>}}</div></td></tr></table></div></td></tr><tr><td style="font-weight:bold;vertical-align:top;">files</td><td style="vertical-align:top;">:</td><td><div><table><tr><td><div>/ji103/static/js/jquery.js</div></td></tr><tr><td><div>/ji103/static/css/calendar.css</div></td></tr><tr><td><div>/ji103/static/js/calendar.js</div></td></tr><tr><td><div>/ji103/static/js/web2py.js</div></td></tr></table></div></td></tr><tr><td style="font-weight:bold;vertical-align:top;">flash</td><td style="vertical-align:top;">:</td><td><div></div></td></tr><tr><td style="font-weight:bold;vertical-align:top;">flash0</td><td style="vertical-align:top;">:</td><td><div>indexform0</div></td></tr><tr><td style="font-weight:bold;vertical-align:top;">form_label_separator</td><td style="vertical-align:top;">:</td><td><div></div></td></tr><tr><td style="font-weight:bold;vertical-align:top;">formstyle</td><td style="vertical-align:top;">:</td><td><div>bootstrap3_inline</div></td></tr><tr><td style="font-weight:bold;vertical-align:top;">generic_patterns</td><td style="vertical-align:top;">:</td><td><div><table></table></div></td></tr><tr><td style="font-weight:bold;vertical-align:top;">headers</td><td style="vertical-align:top;">:</td><td><div><table><tr><td style="font-weight:bold;vertical-align:top;">X-Powered-By</td><td style="vertical-align:top;">:</td><td><div>xping</div></td></tr></table></div></td></tr><tr><td style="font-weight:bold;vertical-align:top;">menu</td><td style="vertical-align:top;">:</td><td><div><table><tr><td><div><table><tr><td><div>Myadd</div></td></tr><tr><td><div>False</div></td></tr><tr><td><div>/ji103/myadd/index</div></td></tr><tr><td><div><table></table></div></td></tr></table></div></td></tr><tr><td><div><table><tr><td><div>Home</div></td></tr><tr><td><div>False</div></td></tr><tr><td><div>/ji103/default/index</div></td></tr><tr><td><div><table></table></div></td></tr></table></div></td></tr><tr><td><div><table><tr><td><div>My Sites</div></td></tr><tr><td><div>False</div></td></tr><tr><td><div>/admin/default/site</div></td></tr></table></div></td></tr><tr><td><div><table><tr><td><div>This App</div></td></tr><tr><td><div>False</div></td></tr><tr><td><div>#</div></td></tr><tr><td><div><table><tr><td><div><table><tr><td><div>Design</div></td></tr><tr><td><div>False</div></td></tr><tr><td><div>/admin/default/design/ji103</div></td></tr></table></div></td></tr><tr><td><div><table><tr><td><div>Myadd ctrl</div></td></tr><tr><td><div>False</div></td></tr><tr><td><div>/admin/default/edit/ji103/controllers/myadd.py</div></td></tr></table></div></td></tr><tr><td><div><table><tr><td><div>Myima ctrl</div></td></tr><tr><td><div>False</div></td></tr><tr><td><div>/admin/default/edit/ji103/controllers/myima.py</div></td></tr></table></div></td></tr><tr><td><div><table><tr><td><div>default ctrl</div></td></tr><tr><td><div>False</div></td></tr><tr><td><div>/admin/default/edit/ji103/controllers/default.py</div></td></tr></table></div></td></tr><tr><td><div><table><tr><td><div>DB Model</div></td></tr><tr><td><div>False</div></td></tr><tr><td><div>/admin/default/edit/ji103/models/db.py</div></td></tr></table></div></td></tr><tr><td><div><table><tr><td><div>Database</div></td></tr><tr><td><div>False</div></td></tr><tr><td><div>/ji103/appadmin/index</div></td></tr></table></div></td></tr><tr><td><div><table><tr><td><div>Errors</div></td></tr><tr><td><div>False</div></td></tr><tr><td><div>/admin/default/errors/ji103</div></td></tr></table></div></td></tr><tr><td><div><table><tr><td><div>About</div></td></tr><tr><td><div>False</div></td></tr><tr><td><div>/admin/default/about/ji103</div></td></tr></table></div></td></tr></table></div></td></tr></table></div></td></tr><tr><td><div><table><tr><td><div>auth</div></td></tr><tr><td><div>False</div></td></tr><tr><td><div>/ji103/default/index</div></td></tr><tr><td><div><table><tr><td><div><table><tr><td><div>events</div></td></tr><tr><td><div>False</div></td></tr><tr><td><div>/ji103/myadd/auth_eventctrl</div></td></tr></table></div></td></tr><tr><td><div><table><tr><td><div>users</div></td></tr><tr><td><div>False</div></td></tr><tr><td><div>/ji103/myadd/auth_userctrl</div></td></tr></table></div></td></tr><tr><td><div><table><tr><td><div>groups</div></td></tr><tr><td><div>False</div></td></tr><tr><td><div>/ji103/myadd/auth_groupctrl</div></td></tr></table></div></td></tr><tr><td><div><table><tr><td><div>member</div></td></tr><tr><td><div>False</div></td></tr><tr><td><div>/ji103/myadd/auth_membershipctrl</div></td></tr></table></div></td></tr></table></div></td></tr></table></div></td></tr></table></div></td></tr><tr><td style="font-weight:bold;vertical-align:top;">meta</td><td style="vertical-align:top;">:</td><td><div><table></table></div></td></tr><tr><td style="font-weight:bold;vertical-align:top;">models_to_run</td><td style="vertical-align:top;">:</td><td><div><table><tr><td><div>^\\w+\\.py$</div></td></tr><tr><td><div>^default/\\w+\\.py$</div></td></tr><tr><td><div>^default/index/\\w+\\.py$</div></td></tr></table></div></td></tr><tr><td style="font-weight:bold;vertical-align:top;">postprocessing</td><td style="vertical-align:top;">:</td><td><div><table></table></div></td></tr><tr><td style="font-weight:bold;vertical-align:top;">session_client</td><td style="vertical-align:top;">:</td><td><div>46.150.97.71</div></td></tr><tr><td style="font-weight:bold;vertical-align:top;">session_cookie_compression_level</td><td style="vertical-align:top;">:</td><td><div>None</div></td></tr><tr><td style="font-weight:bold;vertical-align:top;">session_cookie_expires</td><td style="vertical-align:top;">:</td><td><div>None</div></td></tr><tr><td style="font-weight:bold;vertical-align:top;">session_data_name</td><td style="vertical-align:top;">:</td><td><div>session_data_ji103</div></td></tr><tr><td style="font-weight:bold;vertical-align:top;">session_file</td><td style="vertical-align:top;">:</td><td><div>&lt;open file &#x27;/home/w2p/web2py/applications/ji103/sessions/17d/1d9/46.150.97.71-9c472d86-a1d7-485b-9b9b-eb348811b7e8&#x27;, mode &#x27;rb+&#x27; at 0x7fe2cf533ae0&gt;</div></td></tr><tr><td style="font-weight:bold;vertical-align:top;">session_filename</td><td style="vertical-align:top;">:</td><td><div>/home/w2p/web2py/applications/ji103/sessions/46.150.97.71-9c472d86-a1d7-485b-9b9b-eb348811b7e8</div></td></tr><tr><td style="font-weight:bold;vertical-align:top;">session_hash</td><td style="vertical-align:top;">:</td><td><div>91403c264a30ff2d0a167f254573891d</div></td></tr><tr><td style="font-weight:bold;vertical-align:top;">session_id</td><td style="vertical-align:top;">:</td><td><div>46.150.97.71-9c472d86-a1d7-485b-9b9b-eb348811b7e8</div></td></tr><tr><td style="font-weight:bold;vertical-align:top;">session_id_name</td><td style="vertical-align:top;">:</td><td><div>session_id_ji103</div></td></tr><tr><td style="font-weight:bold;vertical-align:top;">session_locked</td><td style="vertical-align:top;">:</td><td><div>True</div></td></tr><tr><td style="font-weight:bold;vertical-align:top;">session_masterapp</td><td style="vertical-align:top;">:</td><td><div>ji103</div></td></tr><tr><td style="font-weight:bold;vertical-align:top;">session_new</td><td style="vertical-align:top;">:</td><td><div>False</div></td></tr><tr><td style="font-weight:bold;vertical-align:top;">session_storage_type</td><td style="vertical-align:top;">:</td><td><div>file</div></td></tr><tr><td style="font-weight:bold;vertical-align:top;">status</td><td style="vertical-align:top;">:</td><td><div>200</div></td></tr><tr><td style="font-weight:bold;vertical-align:top;">view</td><td style="vertical-align:top;">:</td><td><div>default/index.html</div></td></tr></table></div>'
tRp138
sS'locals'
p139
(dp140
S'k'
S"'f0'"
p141
sS'self'
p142
S"<Row {'f1': 'w2p f1', 'f2': 'w2p f2', 'f3': 'w2p f3', 'f4': 'w2p f4', 'f5': 'w2p f5', 'id': 1L}>"
p143
sssS'traceback'
p144
S'Traceback (most recent call last):\n  File "/home/w2p/web2py/gluon/restricted.py", line 219, in restricted\n    exec(ccode, environment)\n  File "/home/w2p/web2py/applications/ji103/views/default/index.html", line 135, in <module>\n  File "/home/w2p/.conda/envs/lic/lib/python2.7/site-packages/pydal/objects.py", line 111, in __getattr__\n    raise AttributeError\nAttributeError\n'
p145
s.