(dp0
S'f0'
p1
(dp2
S'rname'
p3
S'"f0"'
p4
sS'sortable'
p5
I2
sS'raw_rname'
p6
g1
sS'notnull'
p7
I00
sS'length'
p8
I512
sS'sql'
p9
S'CHAR(512)'
p10
sS'unique'
p11
I00
sS'type'
p12
S'string'
p13
ssS'f1'
p14
(dp15
g3
S'"f1"'
p16
sg5
I3
sg6
g14
sg7
I00
sg8
I512
sg9
S'CHAR(512)'
p17
sg11
I00
sg12
g13
ssS'f2'
p18
(dp19
g3
S'"f2"'
p20
sg5
I4
sg6
g18
sg7
I00
sg8
I512
sg9
S'CHAR(512)'
p21
sg11
I00
sg12
g13
ssS'f3'
p22
(dp23
g3
S'"f3"'
p24
sg5
I5
sg6
g22
sg7
I00
sg8
I512
sg9
S'CHAR(512)'
p25
sg11
I00
sg12
g13
ssS'f4'
p26
(dp27
g3
S'"f4"'
p28
sg5
I6
sg6
g26
sg7
I00
sg8
I512
sg9
S'CHAR(512)'
p29
sg11
I00
sg12
g13
ssS'f5'
p30
(dp31
g3
S'"f5"'
p32
sg5
I7
sg6
g30
sg7
I00
sg8
I512
sg9
S'CHAR(512)'
p33
sg11
I00
sg12
g13
ssS'f6'
p34
(dp35
g3
S'"f6"'
p36
sg5
I8
sg6
g34
sg7
I00
sg8
I512
sg9
S'CHAR(512)'
p37
sg11
I00
sg12
g13
ssS'f7'
p38
(dp39
g3
S'"f7"'
p40
sg5
I9
sg6
g38
sg7
I00
sg8
I512
sg9
S'CHAR(512)'
p41
sg11
I00
sg12
g13
ssS'f8'
p42
(dp43
g3
S'"f8"'
p44
sg5
I10
sg6
g42
sg7
I00
sg8
I512
sg9
S'CHAR(512)'
p45
sg11
I00
sg12
g13
ssS'f9'
p46
(dp47
g3
S'"f9"'
p48
sg5
I11
sg6
g46
sg7
I00
sg8
I512
sg9
S'CHAR(512)'
p49
sg11
I00
sg12
g13
ssS'id'
p50
(dp51
g3
S'"id"'
p52
sg5
I1
sg6
g50
sg7
I00
sg8
I512
sg9
S'INTEGER PRIMARY KEY AUTOINCREMENT'
p53
sg11
I00
sg12
g50
ssS'f23'
p54
(dp55
g3
S'"f23"'
p56
sg5
I25
sg6
g54
sg7
I00
sg8
I512
sg9
S'CHAR(512)'
p57
sg11
I00
sg12
g13
ssS'f22'
p58
(dp59
g3
S'"f22"'
p60
sg5
I24
sg6
g58
sg7
I00
sg8
I512
sg9
S'CHAR(512)'
p61
sg11
I00
sg12
g13
ssS'f21'
p62
(dp63
g3
S'"f21"'
p64
sg5
I23
sg6
g62
sg7
I00
sg8
I512
sg9
S'CHAR(512)'
p65
sg11
I00
sg12
g13
ssS'f20'
p66
(dp67
g3
S'"f20"'
p68
sg5
I22
sg6
g66
sg7
I00
sg8
I512
sg9
S'CHAR(512)'
p69
sg11
I00
sg12
g13
ssS'f18'
p70
(dp71
g3
S'"f18"'
p72
sg5
I20
sg6
g70
sg7
I00
sg8
I32768
sg9
S'TEXT'
p73
sg11
I00
sg12
S'text'
p74
ssS'f19'
p75
(dp76
g3
S'"f19"'
p77
sg5
I21
sg6
g75
sg7
I00
sg8
I512
sg9
S'CHAR(512)'
p78
sg11
I00
sg12
g13
ssS'f12'
p79
(dp80
g3
S'"f12"'
p81
sg5
I14
sg6
g79
sg7
I00
sg8
I512
sg9
S'CHAR(1)'
p82
sg11
I00
sg12
S'boolean'
p83
ssS'f13'
p84
(dp85
g3
S'"f13"'
p86
sg5
I15
sg6
g84
sg7
I00
sg8
I512
sg9
S'CHAR(1)'
p87
sg11
I00
sg12
g83
ssS'f10'
p88
(dp89
g3
S'"f10"'
p90
sg5
I12
sg6
g88
sg7
I00
sg8
I512
sg9
S'CHAR(1)'
p91
sg11
I00
sg12
g83
ssS'f11'
p92
(dp93
g3
S'"f11"'
p94
sg5
I13
sg6
g92
sg7
I00
sg8
I512
sg9
S'CHAR(1)'
p95
sg11
I00
sg12
g83
ssS'f16'
p96
(dp97
g3
S'"f16"'
p98
sg5
I18
sg6
g96
sg7
I00
sg8
I512
sg9
S'CHAR(512)'
p99
sg11
I00
sg12
g13
ssS'f17'
p100
(dp101
g3
S'"f17"'
p102
sg5
I19
sg6
g100
sg7
I00
sg8
I512
sg9
S'CHAR(512)'
p103
sg11
I00
sg12
g13
ssS'f14'
p104
(dp105
g3
S'"f14"'
p106
sg5
I16
sg6
g104
sg7
I00
sg8
I512
sg9
S'CHAR(1)'
p107
sg11
I00
sg12
g83
ssS'f15'
p108
(dp109
g3
S'"f15"'
p110
sg5
I17
sg6
g108
sg7
I00
sg8
I512
sg9
S'CHAR(1)'
p111
sg11
I00
sg12
g83
ss.