(dp0
S'role'
p1
(dp2
S'rname'
p3
S'"role"'
p4
sS'sortable'
p5
I2
sS'raw_rname'
p6
g1
sS'notnull'
p7
I00
sS'length'
p8
I512
sS'sql'
p9
S'CHAR(512)'
p10
sS'unique'
p11
I00
sS'type'
p12
S'string'
p13
ssS'id'
p14
(dp15
g3
S'"id"'
p16
sg5
I1
sg6
g14
sg7
I00
sg8
I512
sg9
S'INTEGER PRIMARY KEY AUTOINCREMENT'
p17
sg11
I00
sg12
g14
ssS'description'
p18
(dp19
g3
S'"description"'
p20
sg5
I3
sg6
g18
sg7
I00
sg8
I32768
sg9
S'TEXT'
p21
sg11
I00
sg12
S'text'
p22
ss.